
main.elf:     file format elf32-avr

Sections:
Idx Name          Size      VMA       LMA       File off  Algn
  0 .data         000001ae  00800100  000021a2  00002236  2**0
                  CONTENTS, ALLOC, LOAD, DATA
  1 .text         000021a2  00000000  00000000  00000094  2**1
                  CONTENTS, ALLOC, LOAD, READONLY, CODE
  2 .bss          00000010  008002ae  008002ae  000023e4  2**0
                  ALLOC
  3 .stab         00004cec  00000000  00000000  000023e4  2**2
                  CONTENTS, READONLY, DEBUGGING
  4 .stabstr      00001b58  00000000  00000000  000070d0  2**0
                  CONTENTS, READONLY, DEBUGGING
  5 .comment      00000011  00000000  00000000  00008c28  2**0
                  CONTENTS, READONLY
  6 .note.gnu.avr.deviceinfo 0000003c  00000000  00000000  00008c3c  2**2
                  CONTENTS, READONLY
  7 .debug_info   00000780  00000000  00000000  00008c78  2**0
                  CONTENTS, READONLY, DEBUGGING
  8 .debug_abbrev 00000718  00000000  00000000  000093f8  2**0
                  CONTENTS, READONLY, DEBUGGING
  9 .debug_line   0000001d  00000000  00000000  00009b10  2**0
                  CONTENTS, READONLY, DEBUGGING
 10 .debug_str    0000027d  00000000  00000000  00009b2d  2**0
                  CONTENTS, READONLY, DEBUGGING

Disassembly of section .text:

00000000 <__vectors>:
       0:	0c 94 da 00 	jmp	0x1b4	; 0x1b4 <__ctors_end>
       4:	0c 94 f9 00 	jmp	0x1f2	; 0x1f2 <__bad_interrupt>
       8:	0c 94 f9 00 	jmp	0x1f2	; 0x1f2 <__bad_interrupt>
       c:	0c 94 f9 00 	jmp	0x1f2	; 0x1f2 <__bad_interrupt>
      10:	0c 94 f9 00 	jmp	0x1f2	; 0x1f2 <__bad_interrupt>
      14:	0c 94 fb 00 	jmp	0x1f6	; 0x1f6 <__vector_5>
      18:	0c 94 97 01 	jmp	0x32e	; 0x32e <__vector_6>
      1c:	0c 94 f9 00 	jmp	0x1f2	; 0x1f2 <__bad_interrupt>
      20:	0c 94 f9 00 	jmp	0x1f2	; 0x1f2 <__bad_interrupt>
      24:	0c 94 f9 00 	jmp	0x1f2	; 0x1f2 <__bad_interrupt>
      28:	0c 94 f9 00 	jmp	0x1f2	; 0x1f2 <__bad_interrupt>
      2c:	0c 94 f9 00 	jmp	0x1f2	; 0x1f2 <__bad_interrupt>
      30:	0c 94 f9 00 	jmp	0x1f2	; 0x1f2 <__bad_interrupt>
      34:	0c 94 f9 00 	jmp	0x1f2	; 0x1f2 <__bad_interrupt>
      38:	0c 94 f9 00 	jmp	0x1f2	; 0x1f2 <__bad_interrupt>
      3c:	0c 94 f9 00 	jmp	0x1f2	; 0x1f2 <__bad_interrupt>
      40:	0c 94 f9 00 	jmp	0x1f2	; 0x1f2 <__bad_interrupt>
      44:	0c 94 f9 00 	jmp	0x1f2	; 0x1f2 <__bad_interrupt>
      48:	0c 94 f9 00 	jmp	0x1f2	; 0x1f2 <__bad_interrupt>
      4c:	0c 94 f9 00 	jmp	0x1f2	; 0x1f2 <__bad_interrupt>
      50:	0c 94 f9 00 	jmp	0x1f2	; 0x1f2 <__bad_interrupt>
      54:	0c 94 f9 00 	jmp	0x1f2	; 0x1f2 <__bad_interrupt>
      58:	0c 94 f9 00 	jmp	0x1f2	; 0x1f2 <__bad_interrupt>
      5c:	0c 94 f9 00 	jmp	0x1f2	; 0x1f2 <__bad_interrupt>
      60:	0c 94 f9 00 	jmp	0x1f2	; 0x1f2 <__bad_interrupt>
      64:	0c 94 f9 00 	jmp	0x1f2	; 0x1f2 <__bad_interrupt>
      68:	0c 94 33 02 	jmp	0x466	; 0x466 <__vector_26>
      6c:	0c 94 f9 00 	jmp	0x1f2	; 0x1f2 <__bad_interrupt>
      70:	0c 94 f9 00 	jmp	0x1f2	; 0x1f2 <__bad_interrupt>
      74:	0c 94 f9 00 	jmp	0x1f2	; 0x1f2 <__bad_interrupt>
      78:	0c 94 f9 00 	jmp	0x1f2	; 0x1f2 <__bad_interrupt>
      7c:	0c 94 f9 00 	jmp	0x1f2	; 0x1f2 <__bad_interrupt>
      80:	0c 94 f9 00 	jmp	0x1f2	; 0x1f2 <__bad_interrupt>
      84:	0c 94 f9 00 	jmp	0x1f2	; 0x1f2 <__bad_interrupt>
      88:	0c 94 f9 00 	jmp	0x1f2	; 0x1f2 <__bad_interrupt>
      8c:	08 4a       	sbci	r16, 0xA8	; 168
      8e:	d7 3b       	cpi	r29, 0xB7	; 183
      90:	3b ce       	rjmp	.-906    	; 0xfffffd08 <__eeprom_end+0xff7efd08>
      92:	01 6e       	ori	r16, 0xE1	; 225
      94:	84 bc       	out	0x24, r8	; 36
      96:	bf fd       	.word	0xfdbf	; ????
      98:	c1 2f       	mov	r28, r17
      9a:	3d 6c       	ori	r19, 0xCD	; 205
      9c:	74 31       	cpi	r23, 0x14	; 20
      9e:	9a bd       	out	0x2a, r25	; 42
      a0:	56 83       	std	Z+6, r21	; 0x06
      a2:	3d da       	rcall	.-2950   	; 0xfffff51e <__eeprom_end+0xff7ef51e>
      a4:	3d 00       	.word	0x003d	; ????
      a6:	c7 7f       	andi	r28, 0xF7	; 247
      a8:	11 be       	out	0x31, r1	; 49
      aa:	d9 e4       	ldi	r29, 0x49	; 73
      ac:	bb 4c       	sbci	r27, 0xCB	; 203
      ae:	3e 91       	ld	r19, -X
      b0:	6b aa       	std	Y+51, r6	; 0x33
      b2:	aa be       	out	0x3a, r10	; 58
      b4:	00 00       	nop
      b6:	00 80       	ld	r0, Z
      b8:	3f 00       	.word	0x003f	; ????

000000ba <__trampolines_end>:
      ba:	00 40       	sbci	r16, 0x00	; 0
      bc:	7a 10       	cpse	r7, r10
      be:	f3 5a       	subi	r31, 0xA3	; 163
      c0:	00 a0       	ldd	r0, Z+32	; 0x20
      c2:	72 4e       	sbci	r23, 0xE2	; 226
      c4:	18 09       	sbc	r17, r8
      c6:	00 10       	cpse	r0, r0
      c8:	a5 d4       	rcall	.+2378   	; 0xa14 <i2c_read_nack+0x10>
      ca:	e8 00       	.word	0x00e8	; ????
      cc:	00 e8       	ldi	r16, 0x80	; 128
      ce:	76 48       	sbci	r23, 0x86	; 134
      d0:	17 00       	.word	0x0017	; ????
      d2:	00 e4       	ldi	r16, 0x40	; 64
      d4:	0b 54       	subi	r16, 0x4B	; 75
      d6:	02 00       	.word	0x0002	; ????
      d8:	00 ca       	rjmp	.-3072   	; 0xfffff4da <__eeprom_end+0xff7ef4da>
      da:	9a 3b       	cpi	r25, 0xBA	; 186
      dc:	00 00       	nop
      de:	00 e1       	ldi	r16, 0x10	; 16
      e0:	f5 05       	cpc	r31, r5
      e2:	00 00       	nop
      e4:	80 96       	adiw	r24, 0x20	; 32
      e6:	98 00       	.word	0x0098	; ????
      e8:	00 00       	nop
      ea:	40 42       	sbci	r20, 0x20	; 32
      ec:	0f 00       	.word	0x000f	; ????
      ee:	00 00       	nop
      f0:	a0 86       	std	Z+8, r10	; 0x08
      f2:	01 00       	.word	0x0001	; ????
      f4:	00 00       	nop
      f6:	10 27       	eor	r17, r16
      f8:	00 00       	nop
      fa:	00 00       	nop
      fc:	e8 03       	fmulsu	r22, r16
      fe:	00 00       	nop
     100:	00 00       	nop
     102:	64 00       	.word	0x0064	; ????
     104:	00 00       	nop
     106:	00 00       	nop
     108:	0a 00       	.word	0x000a	; ????
     10a:	00 00       	nop
     10c:	00 00       	nop
     10e:	01 00       	.word	0x0001	; ????
     110:	00 00       	nop
     112:	00 00       	nop
     114:	2c 76       	andi	r18, 0x6C	; 108
     116:	d8 88       	ldd	r13, Y+16	; 0x10
     118:	dc 67       	ori	r29, 0x7C	; 124
     11a:	4f 08       	sbc	r4, r15
     11c:	23 df       	rcall	.-442    	; 0xffffff64 <__eeprom_end+0xff7eff64>
     11e:	c1 df       	rcall	.-126    	; 0xa2 <__SREG__+0x63>
     120:	ae 59       	subi	r26, 0x9E	; 158
     122:	e1 b1       	in	r30, 0x01	; 1
     124:	b7 96       	adiw	r30, 0x27	; 39
     126:	e5 e3       	ldi	r30, 0x35	; 53
     128:	e4 53       	subi	r30, 0x34	; 52
     12a:	c6 3a       	cpi	r28, 0xA6	; 166
     12c:	e6 51       	subi	r30, 0x16	; 22
     12e:	99 76       	andi	r25, 0x69	; 105
     130:	96 e8       	ldi	r25, 0x86	; 134
     132:	e6 c2       	rjmp	.+1484   	; 0x700 <path1+0x8c>
     134:	84 26       	eor	r8, r20
     136:	eb 89       	ldd	r30, Y+19	; 0x13
     138:	8c 9b       	sbis	0x11, 4	; 17
     13a:	62 ed       	ldi	r22, 0xD2	; 210
     13c:	40 7c       	andi	r20, 0xC0	; 192
     13e:	6f fc       	.word	0xfc6f	; ????
     140:	ef bc       	out	0x2f, r14	; 47
     142:	9c 9f       	mul	r25, r28
     144:	40 f2       	brcs	.-112    	; 0xd6 <__trampolines_end+0x1c>
     146:	ba a5       	ldd	r27, Y+42	; 0x2a
     148:	6f a5       	ldd	r22, Y+47	; 0x2f
     14a:	f4 90       	lpm	r15, Z
     14c:	05 5a       	subi	r16, 0xA5	; 165
     14e:	2a f7       	brpl	.-54     	; 0x11a <__trampolines_end+0x60>
     150:	5c 93       	st	X, r21
     152:	6b 6c       	ori	r22, 0xCB	; 203
     154:	f9 67       	ori	r31, 0x79	; 121
     156:	6d c1       	rjmp	.+730    	; 0x432 <__vector_6+0x104>
     158:	1b fc       	.word	0xfc1b	; ????
     15a:	e0 e4       	ldi	r30, 0x40	; 64
     15c:	0d 47       	sbci	r16, 0x7D	; 125
     15e:	fe f5       	brtc	.+126    	; 0x1de <__do_clear_bss+0x4>
     160:	20 e6       	ldi	r18, 0x60	; 96
     162:	b5 00       	.word	0x00b5	; ????
     164:	d0 ed       	ldi	r29, 0xD0	; 208
     166:	90 2e       	mov	r9, r16
     168:	03 00       	.word	0x0003	; ????
     16a:	94 35       	cpi	r25, 0x54	; 84
     16c:	77 05       	cpc	r23, r7
     16e:	00 80       	ld	r0, Z
     170:	84 1e       	adc	r8, r20
     172:	08 00       	.word	0x0008	; ????
     174:	00 20       	and	r0, r0
     176:	4e 0a       	sbc	r4, r30
     178:	00 00       	nop
     17a:	00 c8       	rjmp	.-4096   	; 0xfffff17c <__eeprom_end+0xff7ef17c>
     17c:	0c 33       	cpi	r16, 0x3C	; 60
     17e:	33 33       	cpi	r19, 0x33	; 51
     180:	33 0f       	add	r19, r19
     182:	98 6e       	ori	r25, 0xE8	; 232
     184:	12 83       	std	Z+2, r17	; 0x02
     186:	11 41       	sbci	r17, 0x11	; 17
     188:	ef 8d       	ldd	r30, Y+31	; 0x1f
     18a:	21 14       	cp	r2, r1
     18c:	89 3b       	cpi	r24, 0xB9	; 185
     18e:	e6 55       	subi	r30, 0x56	; 86
     190:	16 cf       	rjmp	.-468    	; 0xffffffbe <__eeprom_end+0xff7effbe>
     192:	fe e6       	ldi	r31, 0x6E	; 110
     194:	db 18       	sub	r13, r11
     196:	d1 84       	ldd	r13, Z+9	; 0x09
     198:	4b 38       	cpi	r20, 0x8B	; 139
     19a:	1b f7       	brvc	.-58     	; 0x162 <__trampolines_end+0xa8>
     19c:	7c 1d       	adc	r23, r12
     19e:	90 1d       	adc	r25, r0
     1a0:	a4 bb       	out	0x14, r26	; 20
     1a2:	e4 24       	eor	r14, r4
     1a4:	20 32       	cpi	r18, 0x20	; 32
     1a6:	84 72       	andi	r24, 0x24	; 36
     1a8:	5e 22       	and	r5, r30
     1aa:	81 00       	.word	0x0081	; ????
     1ac:	c9 f1       	breq	.+114    	; 0x220 <__vector_5+0x2a>
     1ae:	24 ec       	ldi	r18, 0xC4	; 196
     1b0:	a1 e5       	ldi	r26, 0x51	; 81
     1b2:	3d 27       	eor	r19, r29

000001b4 <__ctors_end>:
     1b4:	11 24       	eor	r1, r1
     1b6:	1f be       	out	0x3f, r1	; 63
     1b8:	cf ef       	ldi	r28, 0xFF	; 255
     1ba:	d0 e1       	ldi	r29, 0x10	; 16
     1bc:	de bf       	out	0x3e, r29	; 62
     1be:	cd bf       	out	0x3d, r28	; 61

000001c0 <__do_copy_data>:
     1c0:	12 e0       	ldi	r17, 0x02	; 2
     1c2:	a0 e0       	ldi	r26, 0x00	; 0
     1c4:	b1 e0       	ldi	r27, 0x01	; 1
     1c6:	e2 ea       	ldi	r30, 0xA2	; 162
     1c8:	f1 e2       	ldi	r31, 0x21	; 33
     1ca:	00 e0       	ldi	r16, 0x00	; 0
     1cc:	0b bf       	out	0x3b, r16	; 59
     1ce:	02 c0       	rjmp	.+4      	; 0x1d4 <__do_copy_data+0x14>
     1d0:	07 90       	elpm	r0, Z+
     1d2:	0d 92       	st	X+, r0
     1d4:	ae 3a       	cpi	r26, 0xAE	; 174
     1d6:	b1 07       	cpc	r27, r17
     1d8:	d9 f7       	brne	.-10     	; 0x1d0 <__do_copy_data+0x10>

000001da <__do_clear_bss>:
     1da:	22 e0       	ldi	r18, 0x02	; 2
     1dc:	ae ea       	ldi	r26, 0xAE	; 174
     1de:	b2 e0       	ldi	r27, 0x02	; 2
     1e0:	01 c0       	rjmp	.+2      	; 0x1e4 <.do_clear_bss_start>

000001e2 <.do_clear_bss_loop>:
     1e2:	1d 92       	st	X+, r1

000001e4 <.do_clear_bss_start>:
     1e4:	ae 3b       	cpi	r26, 0xBE	; 190
     1e6:	b2 07       	cpc	r27, r18
     1e8:	e1 f7       	brne	.-8      	; 0x1e2 <.do_clear_bss_loop>
     1ea:	0e 94 5b 0a 	call	0x14b6	; 0x14b6 <main>
     1ee:	0c 94 cf 10 	jmp	0x219e	; 0x219e <_exit>

000001f2 <__bad_interrupt>:
     1f2:	0c 94 00 00 	jmp	0	; 0x0 <__vectors>

000001f6 <__vector_5>:
    }

    return 0;
}

ISR(INT4_vect){  //Left bumper on PE4
     1f6:	1f 92       	push	r1
     1f8:	0f 92       	push	r0
     1fa:	0f b6       	in	r0, 0x3f	; 63
     1fc:	0f 92       	push	r0
     1fe:	11 24       	eor	r1, r1
     200:	0b b6       	in	r0, 0x3b	; 59
     202:	0f 92       	push	r0
     204:	ef 92       	push	r14
     206:	ff 92       	push	r15
     208:	0f 93       	push	r16
     20a:	1f 93       	push	r17
     20c:	2f 93       	push	r18
     20e:	3f 93       	push	r19
     210:	4f 93       	push	r20
     212:	5f 93       	push	r21
     214:	6f 93       	push	r22
     216:	7f 93       	push	r23
     218:	8f 93       	push	r24
     21a:	9f 93       	push	r25
     21c:	af 93       	push	r26
     21e:	bf 93       	push	r27
     220:	ef 93       	push	r30
     222:	ff 93       	push	r31
    object_detected = 1;
     224:	81 e0       	ldi	r24, 0x01	; 1
     226:	90 e0       	ldi	r25, 0x00	; 0
     228:	90 93 af 02 	sts	0x02AF, r25
     22c:	80 93 ae 02 	sts	0x02AE, r24
    USART0_send_string((unsigned char *)"Left Bumper Hit\r\n");
     230:	82 e0       	ldi	r24, 0x02	; 2
     232:	91 e0       	ldi	r25, 0x01	; 1
     234:	0e 94 f0 07 	call	0xfe0	; 0xfe0 <USART0_send_string>

    //reverse
    USART0_send_string((unsigned char *)"Reversing\r\n");
     238:	84 e1       	ldi	r24, 0x14	; 20
     23a:	91 e0       	ldi	r25, 0x01	; 1
     23c:	0e 94 f0 07 	call	0xfe0	; 0xfe0 <USART0_send_string>
    move(0,0,STABLE_Z);
     240:	60 91 00 01 	lds	r22, 0x0100
     244:	70 91 01 01 	lds	r23, 0x0101
     248:	07 2e       	mov	r0, r23
     24a:	00 0c       	add	r0, r0
     24c:	88 0b       	sbc	r24, r24
     24e:	99 0b       	sbc	r25, r25
     250:	0e 94 d0 0c 	call	0x19a0	; 0x19a0 <__floatsisf>
     254:	7b 01       	movw	r14, r22
     256:	8c 01       	movw	r16, r24
     258:	20 e0       	ldi	r18, 0x00	; 0
     25a:	30 e0       	ldi	r19, 0x00	; 0
     25c:	a9 01       	movw	r20, r18
     25e:	ca 01       	movw	r24, r20
     260:	b9 01       	movw	r22, r18
     262:	0e 94 99 08 	call	0x1132	; 0x1132 <move>
	#else
		//round up by default
		__ticks_dc = (uint32_t)(ceil(fabs(__tmp)));
	#endif

	__builtin_avr_delay_cycles(__ticks_dc);
     266:	2f ef       	ldi	r18, 0xFF	; 255
     268:	83 ed       	ldi	r24, 0xD3	; 211
     26a:	90 e3       	ldi	r25, 0x30	; 48
     26c:	21 50       	subi	r18, 0x01	; 1
     26e:	80 40       	sbci	r24, 0x00	; 0
     270:	90 40       	sbci	r25, 0x00	; 0
     272:	e1 f7       	brne	.-8      	; 0x26c <__vector_5+0x76>
     274:	00 c0       	rjmp	.+0      	; 0x276 <__vector_5+0x80>
     276:	00 00       	nop
    _delay_ms(1000);
    

    move (50,50,STABLE_Z);
     278:	60 91 00 01 	lds	r22, 0x0100
     27c:	70 91 01 01 	lds	r23, 0x0101
     280:	07 2e       	mov	r0, r23
     282:	00 0c       	add	r0, r0
     284:	88 0b       	sbc	r24, r24
     286:	99 0b       	sbc	r25, r25
     288:	0e 94 d0 0c 	call	0x19a0	; 0x19a0 <__floatsisf>
     28c:	7b 01       	movw	r14, r22
     28e:	8c 01       	movw	r16, r24
     290:	20 e0       	ldi	r18, 0x00	; 0
     292:	30 e0       	ldi	r19, 0x00	; 0
     294:	48 e4       	ldi	r20, 0x48	; 72
     296:	52 e4       	ldi	r21, 0x42	; 66
     298:	ca 01       	movw	r24, r20
     29a:	b9 01       	movw	r22, r18
     29c:	0e 94 99 08 	call	0x1132	; 0x1132 <move>
     2a0:	2f ef       	ldi	r18, 0xFF	; 255
     2a2:	89 e6       	ldi	r24, 0x69	; 105
     2a4:	98 e1       	ldi	r25, 0x18	; 24
     2a6:	21 50       	subi	r18, 0x01	; 1
     2a8:	80 40       	sbci	r24, 0x00	; 0
     2aa:	90 40       	sbci	r25, 0x00	; 0
     2ac:	e1 f7       	brne	.-8      	; 0x2a6 <__vector_5+0xb0>
     2ae:	00 c0       	rjmp	.+0      	; 0x2b0 <__vector_5+0xba>
     2b0:	00 00       	nop
    _delay_ms(500);

    //turn left
    USART0_send_string((unsigned char *)"Turning Right\r\n");
     2b2:	80 e2       	ldi	r24, 0x20	; 32
     2b4:	91 e0       	ldi	r25, 0x01	; 1
     2b6:	0e 94 f0 07 	call	0xfe0	; 0xfe0 <USART0_send_string>
    move(50 - TURN_SPEED,50 + TURN_SPEED,STABLE_Z);
     2ba:	60 91 00 01 	lds	r22, 0x0100
     2be:	70 91 01 01 	lds	r23, 0x0101
     2c2:	07 2e       	mov	r0, r23
     2c4:	00 0c       	add	r0, r0
     2c6:	88 0b       	sbc	r24, r24
     2c8:	99 0b       	sbc	r25, r25
     2ca:	0e 94 d0 0c 	call	0x19a0	; 0x19a0 <__floatsisf>
     2ce:	7b 01       	movw	r14, r22
     2d0:	8c 01       	movw	r16, r24
     2d2:	20 e0       	ldi	r18, 0x00	; 0
     2d4:	30 e0       	ldi	r19, 0x00	; 0
     2d6:	42 e8       	ldi	r20, 0x82	; 130
     2d8:	52 e4       	ldi	r21, 0x42	; 66
     2da:	60 e0       	ldi	r22, 0x00	; 0
     2dc:	70 e0       	ldi	r23, 0x00	; 0
     2de:	8c e0       	ldi	r24, 0x0C	; 12
     2e0:	92 e4       	ldi	r25, 0x42	; 66
     2e2:	0e 94 99 08 	call	0x1132	; 0x1132 <move>
     2e6:	2f ef       	ldi	r18, 0xFF	; 255
     2e8:	83 ed       	ldi	r24, 0xD3	; 211
     2ea:	90 e3       	ldi	r25, 0x30	; 48
     2ec:	21 50       	subi	r18, 0x01	; 1
     2ee:	80 40       	sbci	r24, 0x00	; 0
     2f0:	90 40       	sbci	r25, 0x00	; 0
     2f2:	e1 f7       	brne	.-8      	; 0x2ec <__vector_5+0xf6>
     2f4:	00 c0       	rjmp	.+0      	; 0x2f6 <__vector_5+0x100>
     2f6:	00 00       	nop
    _delay_ms(1000);
    USART0_send_string((unsigned char*)"Resuming\r\n");
     2f8:	80 e3       	ldi	r24, 0x30	; 48
     2fa:	91 e0       	ldi	r25, 0x01	; 1
     2fc:	0e 94 f0 07 	call	0xfe0	; 0xfe0 <USART0_send_string>
}
     300:	ff 91       	pop	r31
     302:	ef 91       	pop	r30
     304:	bf 91       	pop	r27
     306:	af 91       	pop	r26
     308:	9f 91       	pop	r25
     30a:	8f 91       	pop	r24
     30c:	7f 91       	pop	r23
     30e:	6f 91       	pop	r22
     310:	5f 91       	pop	r21
     312:	4f 91       	pop	r20
     314:	3f 91       	pop	r19
     316:	2f 91       	pop	r18
     318:	1f 91       	pop	r17
     31a:	0f 91       	pop	r16
     31c:	ff 90       	pop	r15
     31e:	ef 90       	pop	r14
     320:	0f 90       	pop	r0
     322:	0b be       	out	0x3b, r0	; 59
     324:	0f 90       	pop	r0
     326:	0f be       	out	0x3f, r0	; 63
     328:	0f 90       	pop	r0
     32a:	1f 90       	pop	r1
     32c:	18 95       	reti

0000032e <__vector_6>:

ISR(INT5_vect){  //Right bumper on PE5
     32e:	1f 92       	push	r1
     330:	0f 92       	push	r0
     332:	0f b6       	in	r0, 0x3f	; 63
     334:	0f 92       	push	r0
     336:	11 24       	eor	r1, r1
     338:	0b b6       	in	r0, 0x3b	; 59
     33a:	0f 92       	push	r0
     33c:	ef 92       	push	r14
     33e:	ff 92       	push	r15
     340:	0f 93       	push	r16
     342:	1f 93       	push	r17
     344:	2f 93       	push	r18
     346:	3f 93       	push	r19
     348:	4f 93       	push	r20
     34a:	5f 93       	push	r21
     34c:	6f 93       	push	r22
     34e:	7f 93       	push	r23
     350:	8f 93       	push	r24
     352:	9f 93       	push	r25
     354:	af 93       	push	r26
     356:	bf 93       	push	r27
     358:	ef 93       	push	r30
     35a:	ff 93       	push	r31
    object_detected = 1;
     35c:	81 e0       	ldi	r24, 0x01	; 1
     35e:	90 e0       	ldi	r25, 0x00	; 0
     360:	90 93 af 02 	sts	0x02AF, r25
     364:	80 93 ae 02 	sts	0x02AE, r24
    USART0_send_string((unsigned char *)"Right Bumper Hit\r\n");
     368:	8b e3       	ldi	r24, 0x3B	; 59
     36a:	91 e0       	ldi	r25, 0x01	; 1
     36c:	0e 94 f0 07 	call	0xfe0	; 0xfe0 <USART0_send_string>

    //reverse
    USART0_send_string((unsigned char *)"Reversing\r\n");
     370:	84 e1       	ldi	r24, 0x14	; 20
     372:	91 e0       	ldi	r25, 0x01	; 1
     374:	0e 94 f0 07 	call	0xfe0	; 0xfe0 <USART0_send_string>
    move(0,0,STABLE_Z);
     378:	60 91 00 01 	lds	r22, 0x0100
     37c:	70 91 01 01 	lds	r23, 0x0101
     380:	07 2e       	mov	r0, r23
     382:	00 0c       	add	r0, r0
     384:	88 0b       	sbc	r24, r24
     386:	99 0b       	sbc	r25, r25
     388:	0e 94 d0 0c 	call	0x19a0	; 0x19a0 <__floatsisf>
     38c:	7b 01       	movw	r14, r22
     38e:	8c 01       	movw	r16, r24
     390:	20 e0       	ldi	r18, 0x00	; 0
     392:	30 e0       	ldi	r19, 0x00	; 0
     394:	a9 01       	movw	r20, r18
     396:	ca 01       	movw	r24, r20
     398:	b9 01       	movw	r22, r18
     39a:	0e 94 99 08 	call	0x1132	; 0x1132 <move>
     39e:	2f ef       	ldi	r18, 0xFF	; 255
     3a0:	83 ed       	ldi	r24, 0xD3	; 211
     3a2:	90 e3       	ldi	r25, 0x30	; 48
     3a4:	21 50       	subi	r18, 0x01	; 1
     3a6:	80 40       	sbci	r24, 0x00	; 0
     3a8:	90 40       	sbci	r25, 0x00	; 0
     3aa:	e1 f7       	brne	.-8      	; 0x3a4 <__vector_6+0x76>
     3ac:	00 c0       	rjmp	.+0      	; 0x3ae <__vector_6+0x80>
     3ae:	00 00       	nop
    _delay_ms(1000);
    

    move (50,50,STABLE_Z);
     3b0:	60 91 00 01 	lds	r22, 0x0100
     3b4:	70 91 01 01 	lds	r23, 0x0101
     3b8:	07 2e       	mov	r0, r23
     3ba:	00 0c       	add	r0, r0
     3bc:	88 0b       	sbc	r24, r24
     3be:	99 0b       	sbc	r25, r25
     3c0:	0e 94 d0 0c 	call	0x19a0	; 0x19a0 <__floatsisf>
     3c4:	7b 01       	movw	r14, r22
     3c6:	8c 01       	movw	r16, r24
     3c8:	20 e0       	ldi	r18, 0x00	; 0
     3ca:	30 e0       	ldi	r19, 0x00	; 0
     3cc:	48 e4       	ldi	r20, 0x48	; 72
     3ce:	52 e4       	ldi	r21, 0x42	; 66
     3d0:	ca 01       	movw	r24, r20
     3d2:	b9 01       	movw	r22, r18
     3d4:	0e 94 99 08 	call	0x1132	; 0x1132 <move>
     3d8:	2f ef       	ldi	r18, 0xFF	; 255
     3da:	89 e6       	ldi	r24, 0x69	; 105
     3dc:	98 e1       	ldi	r25, 0x18	; 24
     3de:	21 50       	subi	r18, 0x01	; 1
     3e0:	80 40       	sbci	r24, 0x00	; 0
     3e2:	90 40       	sbci	r25, 0x00	; 0
     3e4:	e1 f7       	brne	.-8      	; 0x3de <__vector_6+0xb0>
     3e6:	00 c0       	rjmp	.+0      	; 0x3e8 <__vector_6+0xba>
     3e8:	00 00       	nop
    _delay_ms(500);

    //turn left
    USART0_send_string((unsigned char *)"Turning Left\r\n");
     3ea:	8e e4       	ldi	r24, 0x4E	; 78
     3ec:	91 e0       	ldi	r25, 0x01	; 1
     3ee:	0e 94 f0 07 	call	0xfe0	; 0xfe0 <USART0_send_string>
    move(50 + TURN_SPEED,50 - TURN_SPEED,STABLE_Z);
     3f2:	60 91 00 01 	lds	r22, 0x0100
     3f6:	70 91 01 01 	lds	r23, 0x0101
     3fa:	07 2e       	mov	r0, r23
     3fc:	00 0c       	add	r0, r0
     3fe:	88 0b       	sbc	r24, r24
     400:	99 0b       	sbc	r25, r25
     402:	0e 94 d0 0c 	call	0x19a0	; 0x19a0 <__floatsisf>
     406:	7b 01       	movw	r14, r22
     408:	8c 01       	movw	r16, r24
     40a:	20 e0       	ldi	r18, 0x00	; 0
     40c:	30 e0       	ldi	r19, 0x00	; 0
     40e:	4c e0       	ldi	r20, 0x0C	; 12
     410:	52 e4       	ldi	r21, 0x42	; 66
     412:	60 e0       	ldi	r22, 0x00	; 0
     414:	70 e0       	ldi	r23, 0x00	; 0
     416:	82 e8       	ldi	r24, 0x82	; 130
     418:	92 e4       	ldi	r25, 0x42	; 66
     41a:	0e 94 99 08 	call	0x1132	; 0x1132 <move>
     41e:	2f ef       	ldi	r18, 0xFF	; 255
     420:	83 ed       	ldi	r24, 0xD3	; 211
     422:	90 e3       	ldi	r25, 0x30	; 48
     424:	21 50       	subi	r18, 0x01	; 1
     426:	80 40       	sbci	r24, 0x00	; 0
     428:	90 40       	sbci	r25, 0x00	; 0
     42a:	e1 f7       	brne	.-8      	; 0x424 <__vector_6+0xf6>
     42c:	00 c0       	rjmp	.+0      	; 0x42e <__vector_6+0x100>
     42e:	00 00       	nop
    _delay_ms(1000);
    USART0_send_string((unsigned char*)"Resuming\r\n");
     430:	80 e3       	ldi	r24, 0x30	; 48
     432:	91 e0       	ldi	r25, 0x01	; 1
     434:	0e 94 f0 07 	call	0xfe0	; 0xfe0 <USART0_send_string>
}
     438:	ff 91       	pop	r31
     43a:	ef 91       	pop	r30
     43c:	bf 91       	pop	r27
     43e:	af 91       	pop	r26
     440:	9f 91       	pop	r25
     442:	8f 91       	pop	r24
     444:	7f 91       	pop	r23
     446:	6f 91       	pop	r22
     448:	5f 91       	pop	r21
     44a:	4f 91       	pop	r20
     44c:	3f 91       	pop	r19
     44e:	2f 91       	pop	r18
     450:	1f 91       	pop	r17
     452:	0f 91       	pop	r16
     454:	ff 90       	pop	r15
     456:	ef 90       	pop	r14
     458:	0f 90       	pop	r0
     45a:	0b be       	out	0x3b, r0	; 59
     45c:	0f 90       	pop	r0
     45e:	0f be       	out	0x3f, r0	; 63
     460:	0f 90       	pop	r0
     462:	1f 90       	pop	r1
     464:	18 95       	reti

00000466 <__vector_26>:
        Depth: ddd.dddddd
        Object: (NO | YES)
        Heading: ddd.dddddd
        Water Level: (OK | WARNING | ERROR) : dd.dd
*******************/
ISR(TIMER3_COMPA_vect){ 
     466:	1f 92       	push	r1
     468:	0f 92       	push	r0
     46a:	0f b6       	in	r0, 0x3f	; 63
     46c:	0f 92       	push	r0
     46e:	11 24       	eor	r1, r1
     470:	0b b6       	in	r0, 0x3b	; 59
     472:	0f 92       	push	r0
     474:	0f 93       	push	r16
     476:	1f 93       	push	r17
     478:	2f 93       	push	r18
     47a:	3f 93       	push	r19
     47c:	4f 93       	push	r20
     47e:	5f 93       	push	r21
     480:	6f 93       	push	r22
     482:	7f 93       	push	r23
     484:	8f 93       	push	r24
     486:	9f 93       	push	r25
     488:	af 93       	push	r26
     48a:	bf 93       	push	r27
     48c:	ef 93       	push	r30
     48e:	ff 93       	push	r31
    USART0_send_string((unsigned char *)"Depth: ");
     490:	8d e5       	ldi	r24, 0x5D	; 93
     492:	91 e0       	ldi	r25, 0x01	; 1
     494:	0e 94 f0 07 	call	0xfe0	; 0xfe0 <USART0_send_string>
    USART0_send_string((unsigned char *)dtostrf(get_depth_feet(),3,7,buffer));
     498:	0e 94 52 0a 	call	0x14a4	; 0x14a4 <get_depth_feet>
     49c:	04 eb       	ldi	r16, 0xB4	; 180
     49e:	12 e0       	ldi	r17, 0x02	; 2
     4a0:	27 e0       	ldi	r18, 0x07	; 7
     4a2:	43 e0       	ldi	r20, 0x03	; 3
     4a4:	0e 94 4d 0e 	call	0x1c9a	; 0x1c9a <dtostrf>
     4a8:	0e 94 f0 07 	call	0xfe0	; 0xfe0 <USART0_send_string>
    USART0_send_string((unsigned char*)"\r\n");
     4ac:	83 e9       	ldi	r24, 0x93	; 147
     4ae:	92 e0       	ldi	r25, 0x02	; 2
     4b0:	0e 94 f0 07 	call	0xfe0	; 0xfe0 <USART0_send_string>
    USART0_send_string((unsigned char*)"Object: ");
     4b4:	85 e6       	ldi	r24, 0x65	; 101
     4b6:	91 e0       	ldi	r25, 0x01	; 1
     4b8:	0e 94 f0 07 	call	0xfe0	; 0xfe0 <USART0_send_string>
    if (object_detected){
     4bc:	80 91 ae 02 	lds	r24, 0x02AE
     4c0:	90 91 af 02 	lds	r25, 0x02AF
     4c4:	89 2b       	or	r24, r25
     4c6:	c9 f5       	brne	.+114    	; 0x53a <__vector_26+0xd4>
        USART0_send_string((unsigned char*)"YES");
        object_detected = 0;
    }
    else {
        USART0_send_string((unsigned char*)"NO");
     4c8:	82 e7       	ldi	r24, 0x72	; 114
     4ca:	91 e0       	ldi	r25, 0x01	; 1
     4cc:	0e 94 f0 07 	call	0xfe0	; 0xfe0 <USART0_send_string>
    }
    USART0_send_string((unsigned char*)"\r\n");
     4d0:	83 e9       	ldi	r24, 0x93	; 147
     4d2:	92 e0       	ldi	r25, 0x02	; 2
     4d4:	0e 94 f0 07 	call	0xfe0	; 0xfe0 <USART0_send_string>
    USART0_send_string((unsigned char*)"Heading: ");
     4d8:	85 e7       	ldi	r24, 0x75	; 117
     4da:	91 e0       	ldi	r25, 0x01	; 1
     4dc:	0e 94 f0 07 	call	0xfe0	; 0xfe0 <USART0_send_string>
    USART0_send_string((unsigned char*)"Not yet implemented");
     4e0:	8f e7       	ldi	r24, 0x7F	; 127
     4e2:	91 e0       	ldi	r25, 0x01	; 1
     4e4:	0e 94 f0 07 	call	0xfe0	; 0xfe0 <USART0_send_string>
    USART0_send_string((unsigned char*)"\r\n");
     4e8:	83 e9       	ldi	r24, 0x93	; 147
     4ea:	92 e0       	ldi	r25, 0x02	; 2
     4ec:	0e 94 f0 07 	call	0xfe0	; 0xfe0 <USART0_send_string>
    USART0_send_string((unsigned char*)"Water Level: ");
     4f0:	83 e9       	ldi	r24, 0x93	; 147
     4f2:	91 e0       	ldi	r25, 0x01	; 1
     4f4:	0e 94 f0 07 	call	0xfe0	; 0xfe0 <USART0_send_string>
    USART0_send_string((unsigned char*)"Not yet implemented");
     4f8:	8f e7       	ldi	r24, 0x7F	; 127
     4fa:	91 e0       	ldi	r25, 0x01	; 1
     4fc:	0e 94 f0 07 	call	0xfe0	; 0xfe0 <USART0_send_string>
    USART0_send_string((unsigned char*)"\r\n");
     500:	83 e9       	ldi	r24, 0x93	; 147
     502:	92 e0       	ldi	r25, 0x02	; 2
     504:	0e 94 f0 07 	call	0xfe0	; 0xfe0 <USART0_send_string>
    USART0_send_string((unsigned char*)"\r\n");
     508:	83 e9       	ldi	r24, 0x93	; 147
     50a:	92 e0       	ldi	r25, 0x02	; 2
     50c:	0e 94 f0 07 	call	0xfe0	; 0xfe0 <USART0_send_string>
}
     510:	ff 91       	pop	r31
     512:	ef 91       	pop	r30
     514:	bf 91       	pop	r27
     516:	af 91       	pop	r26
     518:	9f 91       	pop	r25
     51a:	8f 91       	pop	r24
     51c:	7f 91       	pop	r23
     51e:	6f 91       	pop	r22
     520:	5f 91       	pop	r21
     522:	4f 91       	pop	r20
     524:	3f 91       	pop	r19
     526:	2f 91       	pop	r18
     528:	1f 91       	pop	r17
     52a:	0f 91       	pop	r16
     52c:	0f 90       	pop	r0
     52e:	0b be       	out	0x3b, r0	; 59
     530:	0f 90       	pop	r0
     532:	0f be       	out	0x3f, r0	; 63
     534:	0f 90       	pop	r0
     536:	1f 90       	pop	r1
     538:	18 95       	reti
    USART0_send_string((unsigned char *)"Depth: ");
    USART0_send_string((unsigned char *)dtostrf(get_depth_feet(),3,7,buffer));
    USART0_send_string((unsigned char*)"\r\n");
    USART0_send_string((unsigned char*)"Object: ");
    if (object_detected){
        USART0_send_string((unsigned char*)"YES");
     53a:	8e e6       	ldi	r24, 0x6E	; 110
     53c:	91 e0       	ldi	r25, 0x01	; 1
     53e:	0e 94 f0 07 	call	0xfe0	; 0xfe0 <USART0_send_string>
        object_detected = 0;
     542:	10 92 af 02 	sts	0x02AF, r1
     546:	10 92 ae 02 	sts	0x02AE, r1
     54a:	c2 cf       	rjmp	.-124    	; 0x4d0 <__vector_26+0x6a>

0000054c <dive>:
    USART0_send_string((unsigned char*)"Not yet implemented");
    USART0_send_string((unsigned char*)"\r\n");
    USART0_send_string((unsigned char*)"\r\n");
}

void dive(float depth){
     54c:	4f 92       	push	r4
     54e:	5f 92       	push	r5
     550:	6f 92       	push	r6
     552:	7f 92       	push	r7
     554:	8f 92       	push	r8
     556:	9f 92       	push	r9
     558:	af 92       	push	r10
     55a:	bf 92       	push	r11
     55c:	ef 92       	push	r14
     55e:	ff 92       	push	r15
     560:	0f 93       	push	r16
     562:	1f 93       	push	r17
     564:	2b 01       	movw	r4, r22
     566:	3c 01       	movw	r6, r24
    float current_depth = 0;
    while (current_depth < depth){
     568:	20 e0       	ldi	r18, 0x00	; 0
     56a:	30 e0       	ldi	r19, 0x00	; 0
     56c:	a9 01       	movw	r20, r18
     56e:	0e 94 a7 0d 	call	0x1b4e	; 0x1b4e <__gesf2>
     572:	18 16       	cp	r1, r24
     574:	5c f5       	brge	.+86     	; 0x5cc <dive+0x80>
        current_depth = get_depth_feet();
     576:	0e 94 52 0a 	call	0x14a4	; 0x14a4 <get_depth_feet>
     57a:	4b 01       	movw	r8, r22
     57c:	5c 01       	movw	r10, r24
        move(50,50,STABLE_Z + 20);
     57e:	60 91 00 01 	lds	r22, 0x0100
     582:	70 91 01 01 	lds	r23, 0x0101
     586:	6c 5e       	subi	r22, 0xEC	; 236
     588:	7f 4f       	sbci	r23, 0xFF	; 255
     58a:	07 2e       	mov	r0, r23
     58c:	00 0c       	add	r0, r0
     58e:	88 0b       	sbc	r24, r24
     590:	99 0b       	sbc	r25, r25
     592:	0e 94 d0 0c 	call	0x19a0	; 0x19a0 <__floatsisf>
     596:	7b 01       	movw	r14, r22
     598:	8c 01       	movw	r16, r24
     59a:	20 e0       	ldi	r18, 0x00	; 0
     59c:	30 e0       	ldi	r19, 0x00	; 0
     59e:	48 e4       	ldi	r20, 0x48	; 72
     5a0:	52 e4       	ldi	r21, 0x42	; 66
     5a2:	ca 01       	movw	r24, r20
     5a4:	b9 01       	movw	r22, r18
     5a6:	0e 94 99 08 	call	0x1132	; 0x1132 <move>
     5aa:	2f ef       	ldi	r18, 0xFF	; 255
     5ac:	81 ee       	ldi	r24, 0xE1	; 225
     5ae:	94 e0       	ldi	r25, 0x04	; 4
     5b0:	21 50       	subi	r18, 0x01	; 1
     5b2:	80 40       	sbci	r24, 0x00	; 0
     5b4:	90 40       	sbci	r25, 0x00	; 0
     5b6:	e1 f7       	brne	.-8      	; 0x5b0 <dive+0x64>
     5b8:	00 c0       	rjmp	.+0      	; 0x5ba <dive+0x6e>
     5ba:	00 00       	nop
    USART0_send_string((unsigned char*)"\r\n");
}

void dive(float depth){
    float current_depth = 0;
    while (current_depth < depth){
     5bc:	a5 01       	movw	r20, r10
     5be:	94 01       	movw	r18, r8
     5c0:	c3 01       	movw	r24, r6
     5c2:	b2 01       	movw	r22, r4
     5c4:	0e 94 a7 0d 	call	0x1b4e	; 0x1b4e <__gesf2>
     5c8:	18 16       	cp	r1, r24
     5ca:	ac f2       	brlt	.-86     	; 0x576 <dive+0x2a>
        current_depth = get_depth_feet();
        move(50,50,STABLE_Z + 20);
        _delay_ms(100);
    }
    move(50,50,STABLE_Z);
     5cc:	60 91 00 01 	lds	r22, 0x0100
     5d0:	70 91 01 01 	lds	r23, 0x0101
     5d4:	07 2e       	mov	r0, r23
     5d6:	00 0c       	add	r0, r0
     5d8:	88 0b       	sbc	r24, r24
     5da:	99 0b       	sbc	r25, r25
     5dc:	0e 94 d0 0c 	call	0x19a0	; 0x19a0 <__floatsisf>
     5e0:	7b 01       	movw	r14, r22
     5e2:	8c 01       	movw	r16, r24
     5e4:	20 e0       	ldi	r18, 0x00	; 0
     5e6:	30 e0       	ldi	r19, 0x00	; 0
     5e8:	48 e4       	ldi	r20, 0x48	; 72
     5ea:	52 e4       	ldi	r21, 0x42	; 66
     5ec:	ca 01       	movw	r24, r20
     5ee:	b9 01       	movw	r22, r18
     5f0:	0e 94 99 08 	call	0x1132	; 0x1132 <move>
}
     5f4:	1f 91       	pop	r17
     5f6:	0f 91       	pop	r16
     5f8:	ff 90       	pop	r15
     5fa:	ef 90       	pop	r14
     5fc:	bf 90       	pop	r11
     5fe:	af 90       	pop	r10
     600:	9f 90       	pop	r9
     602:	8f 90       	pop	r8
     604:	7f 90       	pop	r7
     606:	6f 90       	pop	r6
     608:	5f 90       	pop	r5
     60a:	4f 90       	pop	r4
     60c:	08 95       	ret

0000060e <enable_bumpers>:

void enable_bumpers(){
    //Set pins as inputs
    DDRE &= ~(1 << 4);
     60e:	14 98       	cbi	0x02, 4	; 2
    DDRE &= ~(1 << 5);
     610:	15 98       	cbi	0x02, 5	; 2
    
    //Enable internal pullups
    PORTE |= (1 << 4);
     612:	1c 9a       	sbi	0x03, 4	; 3
    PORTE |= (1 << 5);
     614:	1d 9a       	sbi	0x03, 5	; 3

    //Set both interrupt 4 and 5 to falling edge
    EICRB |= (1 << ISC41);
     616:	8a b7       	in	r24, 0x3a	; 58
     618:	82 60       	ori	r24, 0x02	; 2
     61a:	8a bf       	out	0x3a, r24	; 58
    EICRB |= (1 << ISC51);
     61c:	8a b7       	in	r24, 0x3a	; 58
     61e:	88 60       	ori	r24, 0x08	; 8
     620:	8a bf       	out	0x3a, r24	; 58

    //enable the interrupts
    EIMSK |= (1 << INT4) | (1 << INT5);
     622:	89 b7       	in	r24, 0x39	; 57
     624:	80 63       	ori	r24, 0x30	; 48
     626:	89 bf       	out	0x39, r24	; 57
     628:	08 95       	ret

0000062a <init_data_timer>:
}
void init_data_timer(){
    //CTC Mode
    TCCR3A |= (1 << COM3A1);
     62a:	eb e8       	ldi	r30, 0x8B	; 139
     62c:	f0 e0       	ldi	r31, 0x00	; 0
     62e:	80 81       	ld	r24, Z
     630:	80 68       	ori	r24, 0x80	; 128
     632:	80 83       	st	Z, r24
    TCCR3A &= ~(1 << COM3A0);
     634:	80 81       	ld	r24, Z
     636:	8f 7b       	andi	r24, 0xBF	; 191
     638:	80 83       	st	Z, r24

    //Prescalar 256
    TCCR3B |= (1 << CS32);
     63a:	ea e8       	ldi	r30, 0x8A	; 138
     63c:	f0 e0       	ldi	r31, 0x00	; 0
     63e:	80 81       	ld	r24, Z
     640:	84 60       	ori	r24, 0x04	; 4
     642:	80 83       	st	Z, r24

    unsigned char sreg;
    /* Save global interrupt flag */ 
    sreg = SREG;
     644:	8f b7       	in	r24, 0x3f	; 63
    /* Disable interrupts */ 
    cli();
     646:	f8 94       	cli
    /* Set TCNTn to 1 */
    TCNT3 = 1;
     648:	21 e0       	ldi	r18, 0x01	; 1
     64a:	30 e0       	ldi	r19, 0x00	; 0
     64c:	30 93 89 00 	sts	0x0089, r19
     650:	20 93 88 00 	sts	0x0088, r18
    sei();
     654:	78 94       	sei
    /* Restore global interrupt flag */ 
    SREG = sreg;
     656:	8f bf       	out	0x3f, r24	; 63
    ICR3 = 65535;
     658:	8f ef       	ldi	r24, 0xFF	; 255
     65a:	9f ef       	ldi	r25, 0xFF	; 255
     65c:	90 93 81 00 	sts	0x0081, r25
     660:	80 93 80 00 	sts	0x0080, r24
    OCR3A = 65535;
     664:	90 93 87 00 	sts	0x0087, r25
     668:	80 93 86 00 	sts	0x0086, r24

    //Enable timer3a interrupt
    ETIMSK = (1 << OCIE3A);
     66c:	80 e1       	ldi	r24, 0x10	; 16
     66e:	80 93 7d 00 	sts	0x007D, r24
     672:	08 95       	ret

00000674 <path1>:

}

void path1(){
     674:	ef 92       	push	r14
     676:	ff 92       	push	r15
     678:	0f 93       	push	r16
     67a:	1f 93       	push	r17
    //Forward for 2 seconds (about 6 feet)
    // clear_display();
    // string2lcd((unsigned char *)"Forward");
    USART0_send_string((unsigned char*)"Move Forward\r\n");
     67c:	81 ea       	ldi	r24, 0xA1	; 161
     67e:	91 e0       	ldi	r25, 0x01	; 1
     680:	0e 94 f0 07 	call	0xfe0	; 0xfe0 <USART0_send_string>
    move(50 + (MOVE_SPEED/2),50 + (MOVE_SPEED/2),STABLE_Z);
     684:	60 91 00 01 	lds	r22, 0x0100
     688:	70 91 01 01 	lds	r23, 0x0101
     68c:	07 2e       	mov	r0, r23
     68e:	00 0c       	add	r0, r0
     690:	88 0b       	sbc	r24, r24
     692:	99 0b       	sbc	r25, r25
     694:	0e 94 d0 0c 	call	0x19a0	; 0x19a0 <__floatsisf>
     698:	7b 01       	movw	r14, r22
     69a:	8c 01       	movw	r16, r24
     69c:	20 e0       	ldi	r18, 0x00	; 0
     69e:	30 e0       	ldi	r19, 0x00	; 0
     6a0:	46 e9       	ldi	r20, 0x96	; 150
     6a2:	52 e4       	ldi	r21, 0x42	; 66
     6a4:	ca 01       	movw	r24, r20
     6a6:	b9 01       	movw	r22, r18
     6a8:	0e 94 99 08 	call	0x1132	; 0x1132 <move>
     6ac:	2f ef       	ldi	r18, 0xFF	; 255
     6ae:	87 ea       	ldi	r24, 0xA7	; 167
     6b0:	91 e6       	ldi	r25, 0x61	; 97
     6b2:	21 50       	subi	r18, 0x01	; 1
     6b4:	80 40       	sbci	r24, 0x00	; 0
     6b6:	90 40       	sbci	r25, 0x00	; 0
     6b8:	e1 f7       	brne	.-8      	; 0x6b2 <path1+0x3e>
     6ba:	00 c0       	rjmp	.+0      	; 0x6bc <path1+0x48>
     6bc:	00 00       	nop
    _delay_ms(2000);
    //Down 3 seconds (aim for about 4 feet)
    // clear_display();
    // string2lcd((unsigned char *)"Down");
    USART0_send_string((unsigned char*)"Move Down\r\n");
     6be:	80 eb       	ldi	r24, 0xB0	; 176
     6c0:	91 e0       	ldi	r25, 0x01	; 1
     6c2:	0e 94 f0 07 	call	0xfe0	; 0xfe0 <USART0_send_string>
    move (50,50,0);
     6c6:	e1 2c       	mov	r14, r1
     6c8:	f1 2c       	mov	r15, r1
     6ca:	87 01       	movw	r16, r14
     6cc:	20 e0       	ldi	r18, 0x00	; 0
     6ce:	30 e0       	ldi	r19, 0x00	; 0
     6d0:	48 e4       	ldi	r20, 0x48	; 72
     6d2:	52 e4       	ldi	r21, 0x42	; 66
     6d4:	ca 01       	movw	r24, r20
     6d6:	b9 01       	movw	r22, r18
     6d8:	0e 94 99 08 	call	0x1132	; 0x1132 <move>
     6dc:	2f ef       	ldi	r18, 0xFF	; 255
     6de:	8b e7       	ldi	r24, 0x7B	; 123
     6e0:	92 e9       	ldi	r25, 0x92	; 146
     6e2:	21 50       	subi	r18, 0x01	; 1
     6e4:	80 40       	sbci	r24, 0x00	; 0
     6e6:	90 40       	sbci	r25, 0x00	; 0
     6e8:	e1 f7       	brne	.-8      	; 0x6e2 <path1+0x6e>
     6ea:	00 c0       	rjmp	.+0      	; 0x6ec <path1+0x78>
     6ec:	00 00       	nop
    _delay_ms(3000);
    //spin left 90 degrees
    // clear_display();
    // string2lcd((unsigned char *)"Turn Left");
    USART0_send_string((unsigned char*)"Turn Left\r\n");
     6ee:	8c eb       	ldi	r24, 0xBC	; 188
     6f0:	91 e0       	ldi	r25, 0x01	; 1
     6f2:	0e 94 f0 07 	call	0xfe0	; 0xfe0 <USART0_send_string>
    move(50 - MOVE_SPEED/2, 50 + MOVE_SPEED/2, STABLE_Z);
     6f6:	60 91 00 01 	lds	r22, 0x0100
     6fa:	70 91 01 01 	lds	r23, 0x0101
     6fe:	07 2e       	mov	r0, r23
     700:	00 0c       	add	r0, r0
     702:	88 0b       	sbc	r24, r24
     704:	99 0b       	sbc	r25, r25
     706:	0e 94 d0 0c 	call	0x19a0	; 0x19a0 <__floatsisf>
     70a:	7b 01       	movw	r14, r22
     70c:	8c 01       	movw	r16, r24
     70e:	20 e0       	ldi	r18, 0x00	; 0
     710:	30 e0       	ldi	r19, 0x00	; 0
     712:	46 e9       	ldi	r20, 0x96	; 150
     714:	52 e4       	ldi	r21, 0x42	; 66
     716:	60 e0       	ldi	r22, 0x00	; 0
     718:	70 e0       	ldi	r23, 0x00	; 0
     71a:	88 ec       	ldi	r24, 0xC8	; 200
     71c:	91 e4       	ldi	r25, 0x41	; 65
     71e:	0e 94 99 08 	call	0x1132	; 0x1132 <move>
     722:	2f ef       	ldi	r18, 0xFF	; 255
     724:	87 ea       	ldi	r24, 0xA7	; 167
     726:	91 e6       	ldi	r25, 0x61	; 97
     728:	21 50       	subi	r18, 0x01	; 1
     72a:	80 40       	sbci	r24, 0x00	; 0
     72c:	90 40       	sbci	r25, 0x00	; 0
     72e:	e1 f7       	brne	.-8      	; 0x728 <path1+0xb4>
     730:	00 c0       	rjmp	.+0      	; 0x732 <path1+0xbe>
     732:	00 00       	nop
    _delay_ms(2000);
    //turn(-90);
    //Forward for 2 seconds (about 6 feet)
    // clear_display();
    // string2lcd((unsigned char *)"Forward");
    USART0_send_string((unsigned char*)"Move Forward\r\n");
     734:	81 ea       	ldi	r24, 0xA1	; 161
     736:	91 e0       	ldi	r25, 0x01	; 1
     738:	0e 94 f0 07 	call	0xfe0	; 0xfe0 <USART0_send_string>
    move(50 + MOVE_SPEED/2, 50 + MOVE_SPEED/2, STABLE_Z);
     73c:	60 91 00 01 	lds	r22, 0x0100
     740:	70 91 01 01 	lds	r23, 0x0101
     744:	07 2e       	mov	r0, r23
     746:	00 0c       	add	r0, r0
     748:	88 0b       	sbc	r24, r24
     74a:	99 0b       	sbc	r25, r25
     74c:	0e 94 d0 0c 	call	0x19a0	; 0x19a0 <__floatsisf>
     750:	7b 01       	movw	r14, r22
     752:	8c 01       	movw	r16, r24
     754:	20 e0       	ldi	r18, 0x00	; 0
     756:	30 e0       	ldi	r19, 0x00	; 0
     758:	46 e9       	ldi	r20, 0x96	; 150
     75a:	52 e4       	ldi	r21, 0x42	; 66
     75c:	ca 01       	movw	r24, r20
     75e:	b9 01       	movw	r22, r18
     760:	0e 94 99 08 	call	0x1132	; 0x1132 <move>
     764:	2f ef       	ldi	r18, 0xFF	; 255
     766:	87 ea       	ldi	r24, 0xA7	; 167
     768:	91 e6       	ldi	r25, 0x61	; 97
     76a:	21 50       	subi	r18, 0x01	; 1
     76c:	80 40       	sbci	r24, 0x00	; 0
     76e:	90 40       	sbci	r25, 0x00	; 0
     770:	e1 f7       	brne	.-8      	; 0x76a <path1+0xf6>
     772:	00 c0       	rjmp	.+0      	; 0x774 <path1+0x100>
     774:	00 00       	nop
    _delay_ms(2000);
    //Spin left 90 degrees
    // clear_display();
    // string2lcd((unsigned char *)"Turn Left");
    USART0_send_string((unsigned char*)"Turn Left\r\n");
     776:	8c eb       	ldi	r24, 0xBC	; 188
     778:	91 e0       	ldi	r25, 0x01	; 1
     77a:	0e 94 f0 07 	call	0xfe0	; 0xfe0 <USART0_send_string>
    move(50 - MOVE_SPEED/2, 50 + MOVE_SPEED/2, STABLE_Z);
     77e:	60 91 00 01 	lds	r22, 0x0100
     782:	70 91 01 01 	lds	r23, 0x0101
     786:	07 2e       	mov	r0, r23
     788:	00 0c       	add	r0, r0
     78a:	88 0b       	sbc	r24, r24
     78c:	99 0b       	sbc	r25, r25
     78e:	0e 94 d0 0c 	call	0x19a0	; 0x19a0 <__floatsisf>
     792:	7b 01       	movw	r14, r22
     794:	8c 01       	movw	r16, r24
     796:	20 e0       	ldi	r18, 0x00	; 0
     798:	30 e0       	ldi	r19, 0x00	; 0
     79a:	46 e9       	ldi	r20, 0x96	; 150
     79c:	52 e4       	ldi	r21, 0x42	; 66
     79e:	60 e0       	ldi	r22, 0x00	; 0
     7a0:	70 e0       	ldi	r23, 0x00	; 0
     7a2:	88 ec       	ldi	r24, 0xC8	; 200
     7a4:	91 e4       	ldi	r25, 0x41	; 65
     7a6:	0e 94 99 08 	call	0x1132	; 0x1132 <move>
     7aa:	2f ef       	ldi	r18, 0xFF	; 255
     7ac:	87 ea       	ldi	r24, 0xA7	; 167
     7ae:	91 e6       	ldi	r25, 0x61	; 97
     7b0:	21 50       	subi	r18, 0x01	; 1
     7b2:	80 40       	sbci	r24, 0x00	; 0
     7b4:	90 40       	sbci	r25, 0x00	; 0
     7b6:	e1 f7       	brne	.-8      	; 0x7b0 <path1+0x13c>
     7b8:	00 c0       	rjmp	.+0      	; 0x7ba <path1+0x146>
     7ba:	00 00       	nop
    _delay_ms(2000);
    //turn(-90);
    //Forward for 2 seconds (about 6 feet)
    // clear_display();
    // string2lcd((unsigned char *)"Forward");
    USART0_send_string((unsigned char*)"Move Forward\r\n");
     7bc:	81 ea       	ldi	r24, 0xA1	; 161
     7be:	91 e0       	ldi	r25, 0x01	; 1
     7c0:	0e 94 f0 07 	call	0xfe0	; 0xfe0 <USART0_send_string>
    move(50 + MOVE_SPEED/2, 50 + MOVE_SPEED/2, STABLE_Z);
     7c4:	60 91 00 01 	lds	r22, 0x0100
     7c8:	70 91 01 01 	lds	r23, 0x0101
     7cc:	07 2e       	mov	r0, r23
     7ce:	00 0c       	add	r0, r0
     7d0:	88 0b       	sbc	r24, r24
     7d2:	99 0b       	sbc	r25, r25
     7d4:	0e 94 d0 0c 	call	0x19a0	; 0x19a0 <__floatsisf>
     7d8:	7b 01       	movw	r14, r22
     7da:	8c 01       	movw	r16, r24
     7dc:	20 e0       	ldi	r18, 0x00	; 0
     7de:	30 e0       	ldi	r19, 0x00	; 0
     7e0:	46 e9       	ldi	r20, 0x96	; 150
     7e2:	52 e4       	ldi	r21, 0x42	; 66
     7e4:	ca 01       	movw	r24, r20
     7e6:	b9 01       	movw	r22, r18
     7e8:	0e 94 99 08 	call	0x1132	; 0x1132 <move>
     7ec:	2f ef       	ldi	r18, 0xFF	; 255
     7ee:	87 ea       	ldi	r24, 0xA7	; 167
     7f0:	91 e6       	ldi	r25, 0x61	; 97
     7f2:	21 50       	subi	r18, 0x01	; 1
     7f4:	80 40       	sbci	r24, 0x00	; 0
     7f6:	90 40       	sbci	r25, 0x00	; 0
     7f8:	e1 f7       	brne	.-8      	; 0x7f2 <path1+0x17e>
     7fa:	00 c0       	rjmp	.+0      	; 0x7fc <path1+0x188>
     7fc:	00 00       	nop
    _delay_ms(2000);
    //Up 3 seconds (resurface)
    // clear_display();
    // string2lcd((unsigned char *)"Up");
    USART0_send_string((unsigned char*)"Move Up\r\n");
     7fe:	88 ec       	ldi	r24, 0xC8	; 200
     800:	91 e0       	ldi	r25, 0x01	; 1
     802:	0e 94 f0 07 	call	0xfe0	; 0xfe0 <USART0_send_string>
    move(50,50,100);
     806:	e1 2c       	mov	r14, r1
     808:	f1 2c       	mov	r15, r1
     80a:	08 ec       	ldi	r16, 0xC8	; 200
     80c:	12 e4       	ldi	r17, 0x42	; 66
     80e:	20 e0       	ldi	r18, 0x00	; 0
     810:	30 e0       	ldi	r19, 0x00	; 0
     812:	48 e4       	ldi	r20, 0x48	; 72
     814:	52 e4       	ldi	r21, 0x42	; 66
     816:	ca 01       	movw	r24, r20
     818:	b9 01       	movw	r22, r18
     81a:	0e 94 99 08 	call	0x1132	; 0x1132 <move>
    //Spin left 90 degrees
    //turn(-90);
    //Forward for 2 seconds (about 6 feet)
    // clear_display();
    // string2lcd((unsigned char *)"Forward");
    USART0_send_string((unsigned char*)"Move Forward\r\n");
     81e:	81 ea       	ldi	r24, 0xA1	; 161
     820:	91 e0       	ldi	r25, 0x01	; 1
     822:	0e 94 f0 07 	call	0xfe0	; 0xfe0 <USART0_send_string>
    move(50 + MOVE_SPEED/2, 50 + MOVE_SPEED/2, STABLE_Z);
     826:	60 91 00 01 	lds	r22, 0x0100
     82a:	70 91 01 01 	lds	r23, 0x0101
     82e:	07 2e       	mov	r0, r23
     830:	00 0c       	add	r0, r0
     832:	88 0b       	sbc	r24, r24
     834:	99 0b       	sbc	r25, r25
     836:	0e 94 d0 0c 	call	0x19a0	; 0x19a0 <__floatsisf>
     83a:	7b 01       	movw	r14, r22
     83c:	8c 01       	movw	r16, r24
     83e:	20 e0       	ldi	r18, 0x00	; 0
     840:	30 e0       	ldi	r19, 0x00	; 0
     842:	46 e9       	ldi	r20, 0x96	; 150
     844:	52 e4       	ldi	r21, 0x42	; 66
     846:	ca 01       	movw	r24, r20
     848:	b9 01       	movw	r22, r18
     84a:	0e 94 99 08 	call	0x1132	; 0x1132 <move>
    //Spin left 90 degrees
    // clear_display();
    // string2lcd((unsigned char *)"Turn Left");
    USART0_send_string((unsigned char*)"Turn Left\r\n");
     84e:	8c eb       	ldi	r24, 0xBC	; 188
     850:	91 e0       	ldi	r25, 0x01	; 1
     852:	0e 94 f0 07 	call	0xfe0	; 0xfe0 <USART0_send_string>
    move(50 - MOVE_SPEED/2, 50 + MOVE_SPEED/2, STABLE_Z);
     856:	60 91 00 01 	lds	r22, 0x0100
     85a:	70 91 01 01 	lds	r23, 0x0101
     85e:	07 2e       	mov	r0, r23
     860:	00 0c       	add	r0, r0
     862:	88 0b       	sbc	r24, r24
     864:	99 0b       	sbc	r25, r25
     866:	0e 94 d0 0c 	call	0x19a0	; 0x19a0 <__floatsisf>
     86a:	7b 01       	movw	r14, r22
     86c:	8c 01       	movw	r16, r24
     86e:	20 e0       	ldi	r18, 0x00	; 0
     870:	30 e0       	ldi	r19, 0x00	; 0
     872:	46 e9       	ldi	r20, 0x96	; 150
     874:	52 e4       	ldi	r21, 0x42	; 66
     876:	60 e0       	ldi	r22, 0x00	; 0
     878:	70 e0       	ldi	r23, 0x00	; 0
     87a:	88 ec       	ldi	r24, 0xC8	; 200
     87c:	91 e4       	ldi	r25, 0x41	; 65
     87e:	0e 94 99 08 	call	0x1132	; 0x1132 <move>
     882:	2f ef       	ldi	r18, 0xFF	; 255
     884:	87 ea       	ldi	r24, 0xA7	; 167
     886:	91 e6       	ldi	r25, 0x61	; 97
     888:	21 50       	subi	r18, 0x01	; 1
     88a:	80 40       	sbci	r24, 0x00	; 0
     88c:	90 40       	sbci	r25, 0x00	; 0
     88e:	e1 f7       	brne	.-8      	; 0x888 <path1+0x214>
     890:	00 c0       	rjmp	.+0      	; 0x892 <path1+0x21e>
     892:	00 00       	nop
    _delay_ms(2000);
    //turn(-90);
    //Complete (back in some position as start)
}
     894:	1f 91       	pop	r17
     896:	0f 91       	pop	r16
     898:	ff 90       	pop	r15
     89a:	ef 90       	pop	r14
     89c:	08 95       	ret

0000089e <path2>:
     89e:	08 95       	ret

000008a0 <path3>:
void path2(){
    //Implement if necessary
}
void path3(){
     8a0:	08 95       	ret

000008a2 <turn>:
    //Implement if necessary
}

void turn(int degrees){
     8a2:	cf 92       	push	r12
     8a4:	df 92       	push	r13
     8a6:	ef 92       	push	r14
     8a8:	ff 92       	push	r15
     8aa:	0f 93       	push	r16
     8ac:	1f 93       	push	r17
     8ae:	cf 93       	push	r28
     8b0:	df 93       	push	r29
     8b2:	ec 01       	movw	r28, r24
    int *x = 0;
    int *y = 0;
    int *z = 0;
    float headingDegrees = getHeading(x,y,z);
     8b4:	40 e0       	ldi	r20, 0x00	; 0
     8b6:	50 e0       	ldi	r21, 0x00	; 0
     8b8:	60 e0       	ldi	r22, 0x00	; 0
     8ba:	70 e0       	ldi	r23, 0x00	; 0
     8bc:	80 e0       	ldi	r24, 0x00	; 0
     8be:	90 e0       	ldi	r25, 0x00	; 0
     8c0:	0e 94 79 09 	call	0x12f2	; 0x12f2 <getHeading>
     8c4:	6b 01       	movw	r12, r22
     8c6:	7c 01       	movw	r14, r24
    //Get the new heading to aim for
    int new_heading = (int)(headingDegrees + degrees)%360;
     8c8:	be 01       	movw	r22, r28
     8ca:	0d 2e       	mov	r0, r29
     8cc:	00 0c       	add	r0, r0
     8ce:	88 0b       	sbc	r24, r24
     8d0:	99 0b       	sbc	r25, r25
     8d2:	0e 94 d0 0c 	call	0x19a0	; 0x19a0 <__floatsisf>
     8d6:	a7 01       	movw	r20, r14
     8d8:	96 01       	movw	r18, r12
     8da:	0e 94 43 0b 	call	0x1686	; 0x1686 <__addsf3>
     8de:	0e 94 98 0c 	call	0x1930	; 0x1930 <__fixsfsi>
     8e2:	cb 01       	movw	r24, r22
     8e4:	68 e6       	ldi	r22, 0x68	; 104
     8e6:	71 e0       	ldi	r23, 0x01	; 1
     8e8:	0e 94 25 0e 	call	0x1c4a	; 0x1c4a <__divmodhi4>
     8ec:	8c 01       	movw	r16, r24
    if (degrees < 0){
     8ee:	d7 fd       	sbrc	r29, 7
     8f0:	29 c0       	rjmp	.+82     	; 0x944 <turn+0xa2>
        while ((int)headingDegrees != new_heading){
            move(-TURN_SPEED,TURN_SPEED,50);
            getHeading(x,y,z);
        }
    }
    else if (degrees > 0){
     8f2:	cd 2b       	or	r28, r29
     8f4:	f1 f0       	breq	.+60     	; 0x932 <turn+0x90>
        //Spin right until new heading
        while ((int)headingDegrees != (int)new_heading){
     8f6:	c7 01       	movw	r24, r14
     8f8:	b6 01       	movw	r22, r12
     8fa:	0e 94 98 0c 	call	0x1930	; 0x1930 <__fixsfsi>
     8fe:	06 17       	cp	r16, r22
     900:	17 07       	cpc	r17, r23
     902:	b9 f0       	breq	.+46     	; 0x932 <turn+0x90>
            move(TURN_SPEED,-TURN_SPEED,50);
     904:	e1 2c       	mov	r14, r1
     906:	f1 2c       	mov	r15, r1
     908:	08 e4       	ldi	r16, 0x48	; 72
     90a:	12 e4       	ldi	r17, 0x42	; 66
     90c:	20 e0       	ldi	r18, 0x00	; 0
     90e:	30 e0       	ldi	r19, 0x00	; 0
     910:	40 e7       	ldi	r20, 0x70	; 112
     912:	51 ec       	ldi	r21, 0xC1	; 193
     914:	60 e0       	ldi	r22, 0x00	; 0
     916:	70 e0       	ldi	r23, 0x00	; 0
     918:	80 e7       	ldi	r24, 0x70	; 112
     91a:	91 e4       	ldi	r25, 0x41	; 65
     91c:	0e 94 99 08 	call	0x1132	; 0x1132 <move>
            getHeading(x,y,z);
     920:	40 e0       	ldi	r20, 0x00	; 0
     922:	50 e0       	ldi	r21, 0x00	; 0
     924:	60 e0       	ldi	r22, 0x00	; 0
     926:	70 e0       	ldi	r23, 0x00	; 0
     928:	80 e0       	ldi	r24, 0x00	; 0
     92a:	90 e0       	ldi	r25, 0x00	; 0
     92c:	0e 94 79 09 	call	0x12f2	; 0x12f2 <getHeading>
     930:	e9 cf       	rjmp	.-46     	; 0x904 <turn+0x62>
        }
    }
}
     932:	df 91       	pop	r29
     934:	cf 91       	pop	r28
     936:	1f 91       	pop	r17
     938:	0f 91       	pop	r16
     93a:	ff 90       	pop	r15
     93c:	ef 90       	pop	r14
     93e:	df 90       	pop	r13
     940:	cf 90       	pop	r12
     942:	08 95       	ret
    float headingDegrees = getHeading(x,y,z);
    //Get the new heading to aim for
    int new_heading = (int)(headingDegrees + degrees)%360;
    if (degrees < 0){
        //Spin left until new heading
        while ((int)headingDegrees != new_heading){
     944:	c7 01       	movw	r24, r14
     946:	b6 01       	movw	r22, r12
     948:	0e 94 98 0c 	call	0x1930	; 0x1930 <__fixsfsi>
     94c:	06 17       	cp	r16, r22
     94e:	17 07       	cpc	r17, r23
     950:	81 f3       	breq	.-32     	; 0x932 <turn+0x90>
            move(-TURN_SPEED,TURN_SPEED,50);
     952:	e1 2c       	mov	r14, r1
     954:	f1 2c       	mov	r15, r1
     956:	08 e4       	ldi	r16, 0x48	; 72
     958:	12 e4       	ldi	r17, 0x42	; 66
     95a:	20 e0       	ldi	r18, 0x00	; 0
     95c:	30 e0       	ldi	r19, 0x00	; 0
     95e:	40 e7       	ldi	r20, 0x70	; 112
     960:	51 e4       	ldi	r21, 0x41	; 65
     962:	60 e0       	ldi	r22, 0x00	; 0
     964:	70 e0       	ldi	r23, 0x00	; 0
     966:	80 e7       	ldi	r24, 0x70	; 112
     968:	91 ec       	ldi	r25, 0xC1	; 193
     96a:	0e 94 99 08 	call	0x1132	; 0x1132 <move>
            getHeading(x,y,z);
     96e:	40 e0       	ldi	r20, 0x00	; 0
     970:	50 e0       	ldi	r21, 0x00	; 0
     972:	60 e0       	ldi	r22, 0x00	; 0
     974:	70 e0       	ldi	r23, 0x00	; 0
     976:	80 e0       	ldi	r24, 0x00	; 0
     978:	90 e0       	ldi	r25, 0x00	; 0
     97a:	0e 94 79 09 	call	0x12f2	; 0x12f2 <getHeading>
     97e:	e9 cf       	rjmp	.-46     	; 0x952 <turn+0xb0>

00000980 <i2c_init>:
#define Prescaler 1
#define TWBR_val ((((F_CPU / F_SCL) / Prescaler) - 16 ) / 2)

void i2c_init(void)
{
	TWBR = (uint8_t)TWBR_val;
     980:	88 e4       	ldi	r24, 0x48	; 72
     982:	80 93 70 00 	sts	0x0070, r24
     986:	08 95       	ret

00000988 <i2c_start>:
}

uint8_t i2c_start(uint8_t address)
{
	// reset TWI control register
	TWCR = 0;
     988:	10 92 74 00 	sts	0x0074, r1
	// transmit START condition 
	TWCR = (1<<TWINT) | (1<<TWSTA) | (1<<TWEN);
     98c:	94 ea       	ldi	r25, 0xA4	; 164
     98e:	90 93 74 00 	sts	0x0074, r25
	// wait for end of transmission
	while( !(TWCR & (1<<TWINT)) );
     992:	90 91 74 00 	lds	r25, 0x0074
     996:	97 ff       	sbrs	r25, 7
     998:	fc cf       	rjmp	.-8      	; 0x992 <i2c_start+0xa>
	
	// check if the start condition was successfully transmitted
	if((TWSR & 0xF8) != TW_START){ return 1; }
     99a:	90 91 71 00 	lds	r25, 0x0071
     99e:	98 7f       	andi	r25, 0xF8	; 248
     9a0:	98 30       	cpi	r25, 0x08	; 8
     9a2:	11 f0       	breq	.+4      	; 0x9a8 <i2c_start+0x20>
     9a4:	81 e0       	ldi	r24, 0x01	; 1
     9a6:	08 95       	ret
	
	// load slave address into data register
	TWDR = address;
     9a8:	80 93 73 00 	sts	0x0073, r24
	// start transmission of address
	TWCR = (1<<TWINT) | (1<<TWEN);
     9ac:	84 e8       	ldi	r24, 0x84	; 132
     9ae:	80 93 74 00 	sts	0x0074, r24
	// wait for end of transmission
	while( !(TWCR & (1<<TWINT)) );
     9b2:	80 91 74 00 	lds	r24, 0x0074
     9b6:	87 ff       	sbrs	r24, 7
     9b8:	fc cf       	rjmp	.-8      	; 0x9b2 <i2c_start+0x2a>
	
	// check if the device has acknowledged the READ / WRITE mode
	uint8_t twst = TW_STATUS & 0xF8;
     9ba:	80 91 71 00 	lds	r24, 0x0071
     9be:	88 7f       	andi	r24, 0xF8	; 248
	if ( (twst != TW_MT_SLA_ACK) && (twst != TW_MR_SLA_ACK) ) return 1;
     9c0:	88 31       	cpi	r24, 0x18	; 24
     9c2:	11 f0       	breq	.+4      	; 0x9c8 <i2c_start+0x40>
     9c4:	80 34       	cpi	r24, 0x40	; 64
     9c6:	71 f7       	brne	.-36     	; 0x9a4 <i2c_start+0x1c>
	
	return 0;
     9c8:	80 e0       	ldi	r24, 0x00	; 0
}
     9ca:	08 95       	ret

000009cc <i2c_write>:

uint8_t i2c_write(uint8_t data)
{
	// load data into data register
	TWDR = data;
     9cc:	80 93 73 00 	sts	0x0073, r24
	// start transmission of data
	TWCR = (1<<TWINT) | (1<<TWEN);
     9d0:	84 e8       	ldi	r24, 0x84	; 132
     9d2:	80 93 74 00 	sts	0x0074, r24
	// wait for end of transmission
	while( !(TWCR & (1<<TWINT)) );
     9d6:	80 91 74 00 	lds	r24, 0x0074
     9da:	87 ff       	sbrs	r24, 7
     9dc:	fc cf       	rjmp	.-8      	; 0x9d6 <i2c_write+0xa>
	
	if( (TWSR & 0xF8) != TW_MT_DATA_ACK ){ return 1; }
     9de:	90 91 71 00 	lds	r25, 0x0071
     9e2:	98 7f       	andi	r25, 0xF8	; 248
     9e4:	81 e0       	ldi	r24, 0x01	; 1
     9e6:	98 32       	cpi	r25, 0x28	; 40
     9e8:	09 f0       	breq	.+2      	; 0x9ec <i2c_write+0x20>
	
	return 0;
}
     9ea:	08 95       	ret
	// start transmission of data
	TWCR = (1<<TWINT) | (1<<TWEN);
	// wait for end of transmission
	while( !(TWCR & (1<<TWINT)) );
	
	if( (TWSR & 0xF8) != TW_MT_DATA_ACK ){ return 1; }
     9ec:	80 e0       	ldi	r24, 0x00	; 0
	
	return 0;
}
     9ee:	08 95       	ret

000009f0 <i2c_read_ack>:

uint8_t i2c_read_ack(void)
{
	
	// start TWI module and acknowledge data after reception
	TWCR = (1<<TWINT) | (1<<TWEN) | (1<<TWEA); 
     9f0:	84 ec       	ldi	r24, 0xC4	; 196
     9f2:	80 93 74 00 	sts	0x0074, r24
	// wait for end of transmission
	while( !(TWCR & (1<<TWINT)) );
     9f6:	80 91 74 00 	lds	r24, 0x0074
     9fa:	87 ff       	sbrs	r24, 7
     9fc:	fc cf       	rjmp	.-8      	; 0x9f6 <i2c_read_ack+0x6>
	// return received data from TWDR
	return TWDR;
     9fe:	80 91 73 00 	lds	r24, 0x0073
}
     a02:	08 95       	ret

00000a04 <i2c_read_nack>:

uint8_t i2c_read_nack(void)
{
	
	// start receiving without acknowledging reception
	TWCR = (1<<TWINT) | (1<<TWEN);
     a04:	84 e8       	ldi	r24, 0x84	; 132
     a06:	80 93 74 00 	sts	0x0074, r24
	// wait for end of transmission
	while( !(TWCR & (1<<TWINT)) );
     a0a:	80 91 74 00 	lds	r24, 0x0074
     a0e:	87 ff       	sbrs	r24, 7
     a10:	fc cf       	rjmp	.-8      	; 0xa0a <i2c_read_nack+0x6>
	// return received data from TWDR
	return TWDR;
     a12:	80 91 73 00 	lds	r24, 0x0073
}
     a16:	08 95       	ret

00000a18 <i2c_transmit>:

uint8_t i2c_transmit(uint8_t address, uint8_t* data, uint16_t length)
{
     a18:	0f 93       	push	r16
     a1a:	1f 93       	push	r17
     a1c:	cf 93       	push	r28
     a1e:	df 93       	push	r29
     a20:	8b 01       	movw	r16, r22
     a22:	ea 01       	movw	r28, r20
	if (i2c_start(address | I2C_WRITE)) return 1;
     a24:	0e 94 c4 04 	call	0x988	; 0x988 <i2c_start>
     a28:	81 11       	cpse	r24, r1
     a2a:	1f c0       	rjmp	.+62     	; 0xa6a <i2c_transmit+0x52>
	
	for (uint16_t i = 0; i < length; i++)
     a2c:	20 97       	sbiw	r28, 0x00	; 0
     a2e:	a9 f0       	breq	.+42     	; 0xa5a <i2c_transmit+0x42>
     a30:	f8 01       	movw	r30, r16
     a32:	c0 0f       	add	r28, r16
     a34:	d1 1f       	adc	r29, r17
uint8_t i2c_write(uint8_t data)
{
	// load data into data register
	TWDR = data;
	// start transmission of data
	TWCR = (1<<TWINT) | (1<<TWEN);
     a36:	24 e8       	ldi	r18, 0x84	; 132
{
	if (i2c_start(address | I2C_WRITE)) return 1;
	
	for (uint16_t i = 0; i < length; i++)
	{
		if (i2c_write(data[i])) return 1;
     a38:	91 91       	ld	r25, Z+
}

uint8_t i2c_write(uint8_t data)
{
	// load data into data register
	TWDR = data;
     a3a:	90 93 73 00 	sts	0x0073, r25
	// start transmission of data
	TWCR = (1<<TWINT) | (1<<TWEN);
     a3e:	20 93 74 00 	sts	0x0074, r18
	// wait for end of transmission
	while( !(TWCR & (1<<TWINT)) );
     a42:	90 91 74 00 	lds	r25, 0x0074
     a46:	97 ff       	sbrs	r25, 7
     a48:	fc cf       	rjmp	.-8      	; 0xa42 <i2c_transmit+0x2a>
	
	if( (TWSR & 0xF8) != TW_MT_DATA_ACK ){ return 1; }
     a4a:	90 91 71 00 	lds	r25, 0x0071
     a4e:	98 7f       	andi	r25, 0xF8	; 248
     a50:	98 32       	cpi	r25, 0x28	; 40
     a52:	59 f4       	brne	.+22     	; 0xa6a <i2c_transmit+0x52>

uint8_t i2c_transmit(uint8_t address, uint8_t* data, uint16_t length)
{
	if (i2c_start(address | I2C_WRITE)) return 1;
	
	for (uint16_t i = 0; i < length; i++)
     a54:	ec 17       	cp	r30, r28
     a56:	fd 07       	cpc	r31, r29
     a58:	79 f7       	brne	.-34     	; 0xa38 <i2c_transmit+0x20>
}

void i2c_stop(void)
{
	// transmit STOP condition
	TWCR = (1<<TWINT) | (1<<TWEN) | (1<<TWSTO);
     a5a:	94 e9       	ldi	r25, 0x94	; 148
     a5c:	90 93 74 00 	sts	0x0074, r25
	}
	
	i2c_stop();
	
	return 0;
}
     a60:	df 91       	pop	r29
     a62:	cf 91       	pop	r28
     a64:	1f 91       	pop	r17
     a66:	0f 91       	pop	r16
     a68:	08 95       	ret
	return TWDR;
}

uint8_t i2c_transmit(uint8_t address, uint8_t* data, uint16_t length)
{
	if (i2c_start(address | I2C_WRITE)) return 1;
     a6a:	81 e0       	ldi	r24, 0x01	; 1
	}
	
	i2c_stop();
	
	return 0;
}
     a6c:	df 91       	pop	r29
     a6e:	cf 91       	pop	r28
     a70:	1f 91       	pop	r17
     a72:	0f 91       	pop	r16
     a74:	08 95       	ret

00000a76 <i2c_receive>:

uint8_t i2c_receive(uint8_t address, uint8_t* data, uint16_t length)
{
     a76:	0f 93       	push	r16
     a78:	1f 93       	push	r17
     a7a:	cf 93       	push	r28
     a7c:	df 93       	push	r29
     a7e:	8b 01       	movw	r16, r22
     a80:	ea 01       	movw	r28, r20
	if (i2c_start(address | I2C_READ)) return 1;
     a82:	81 60       	ori	r24, 0x01	; 1
     a84:	0e 94 c4 04 	call	0x988	; 0x988 <i2c_start>
     a88:	81 11       	cpse	r24, r1
     a8a:	25 c0       	rjmp	.+74     	; 0xad6 <i2c_receive+0x60>
	
	for (uint16_t i = 0; i < (length-1); i++)
     a8c:	de 01       	movw	r26, r28
     a8e:	11 97       	sbiw	r26, 0x01	; 1
     a90:	41 f1       	breq	.+80     	; 0xae2 <i2c_receive+0x6c>
     a92:	f8 01       	movw	r30, r16
     a94:	a0 0f       	add	r26, r16
     a96:	b1 1f       	adc	r27, r17

uint8_t i2c_read_ack(void)
{
	
	// start TWI module and acknowledge data after reception
	TWCR = (1<<TWINT) | (1<<TWEN) | (1<<TWEA); 
     a98:	24 ec       	ldi	r18, 0xC4	; 196
     a9a:	20 93 74 00 	sts	0x0074, r18
	// wait for end of transmission
	while( !(TWCR & (1<<TWINT)) );
     a9e:	90 91 74 00 	lds	r25, 0x0074
     aa2:	97 ff       	sbrs	r25, 7
     aa4:	fc cf       	rjmp	.-8      	; 0xa9e <i2c_receive+0x28>
	// return received data from TWDR
	return TWDR;
     aa6:	90 91 73 00 	lds	r25, 0x0073
{
	if (i2c_start(address | I2C_READ)) return 1;
	
	for (uint16_t i = 0; i < (length-1); i++)
	{
		data[i] = i2c_read_ack();
     aaa:	91 93       	st	Z+, r25

uint8_t i2c_receive(uint8_t address, uint8_t* data, uint16_t length)
{
	if (i2c_start(address | I2C_READ)) return 1;
	
	for (uint16_t i = 0; i < (length-1); i++)
     aac:	ae 17       	cp	r26, r30
     aae:	bf 07       	cpc	r27, r31
     ab0:	a1 f7       	brne	.-24     	; 0xa9a <i2c_receive+0x24>

uint8_t i2c_read_nack(void)
{
	
	// start receiving without acknowledging reception
	TWCR = (1<<TWINT) | (1<<TWEN);
     ab2:	94 e8       	ldi	r25, 0x84	; 132
     ab4:	90 93 74 00 	sts	0x0074, r25
	// wait for end of transmission
	while( !(TWCR & (1<<TWINT)) );
     ab8:	90 91 74 00 	lds	r25, 0x0074
     abc:	97 ff       	sbrs	r25, 7
     abe:	fc cf       	rjmp	.-8      	; 0xab8 <i2c_receive+0x42>
	// return received data from TWDR
	return TWDR;
     ac0:	90 91 73 00 	lds	r25, 0x0073
	
	for (uint16_t i = 0; i < (length-1); i++)
	{
		data[i] = i2c_read_ack();
	}
	data[(length-1)] = i2c_read_nack();
     ac4:	9c 93       	st	X, r25
}

void i2c_stop(void)
{
	// transmit STOP condition
	TWCR = (1<<TWINT) | (1<<TWEN) | (1<<TWSTO);
     ac6:	94 e9       	ldi	r25, 0x94	; 148
     ac8:	90 93 74 00 	sts	0x0074, r25
	data[(length-1)] = i2c_read_nack();
	
	i2c_stop();
	
	return 0;
}
     acc:	df 91       	pop	r29
     ace:	cf 91       	pop	r28
     ad0:	1f 91       	pop	r17
     ad2:	0f 91       	pop	r16
     ad4:	08 95       	ret
	return 0;
}

uint8_t i2c_receive(uint8_t address, uint8_t* data, uint16_t length)
{
	if (i2c_start(address | I2C_READ)) return 1;
     ad6:	81 e0       	ldi	r24, 0x01	; 1
	data[(length-1)] = i2c_read_nack();
	
	i2c_stop();
	
	return 0;
}
     ad8:	df 91       	pop	r29
     ada:	cf 91       	pop	r28
     adc:	1f 91       	pop	r17
     ade:	0f 91       	pop	r16
     ae0:	08 95       	ret
     ae2:	d8 01       	movw	r26, r16
     ae4:	e6 cf       	rjmp	.-52     	; 0xab2 <i2c_receive+0x3c>

00000ae6 <i2c_writeReg>:

uint8_t i2c_writeReg(uint8_t devaddr, uint8_t regaddr, uint8_t* data, uint16_t length)
{
     ae6:	ff 92       	push	r15
     ae8:	0f 93       	push	r16
     aea:	1f 93       	push	r17
     aec:	cf 93       	push	r28
     aee:	df 93       	push	r29
     af0:	16 2f       	mov	r17, r22
     af2:	f4 2e       	mov	r15, r20
     af4:	05 2f       	mov	r16, r21
     af6:	e9 01       	movw	r28, r18
	if (i2c_start(devaddr | 0x00)) return 1;
     af8:	0e 94 c4 04 	call	0x988	; 0x988 <i2c_start>
     afc:	81 11       	cpse	r24, r1
     afe:	2c c0       	rjmp	.+88     	; 0xb58 <i2c_writeReg+0x72>
}

uint8_t i2c_write(uint8_t data)
{
	// load data into data register
	TWDR = data;
     b00:	10 93 73 00 	sts	0x0073, r17
	// start transmission of data
	TWCR = (1<<TWINT) | (1<<TWEN);
     b04:	94 e8       	ldi	r25, 0x84	; 132
     b06:	90 93 74 00 	sts	0x0074, r25
	// wait for end of transmission
	while( !(TWCR & (1<<TWINT)) );
     b0a:	90 91 74 00 	lds	r25, 0x0074
     b0e:	97 ff       	sbrs	r25, 7
     b10:	fc cf       	rjmp	.-8      	; 0xb0a <i2c_writeReg+0x24>
	
	if( (TWSR & 0xF8) != TW_MT_DATA_ACK ){ return 1; }
     b12:	90 91 71 00 	lds	r25, 0x0071
{
	if (i2c_start(devaddr | 0x00)) return 1;

	i2c_write(regaddr);

	for (uint16_t i = 0; i < length; i++)
     b16:	20 97       	sbiw	r28, 0x00	; 0
     b18:	b1 f0       	breq	.+44     	; 0xb46 <i2c_writeReg+0x60>
     b1a:	ef 2d       	mov	r30, r15
     b1c:	f0 2f       	mov	r31, r16
     b1e:	ce 0f       	add	r28, r30
     b20:	df 1f       	adc	r29, r31
uint8_t i2c_write(uint8_t data)
{
	// load data into data register
	TWDR = data;
	// start transmission of data
	TWCR = (1<<TWINT) | (1<<TWEN);
     b22:	44 e8       	ldi	r20, 0x84	; 132

	i2c_write(regaddr);

	for (uint16_t i = 0; i < length; i++)
	{
		if (i2c_write(data[i])) return 1;
     b24:	91 91       	ld	r25, Z+
}

uint8_t i2c_write(uint8_t data)
{
	// load data into data register
	TWDR = data;
     b26:	90 93 73 00 	sts	0x0073, r25
	// start transmission of data
	TWCR = (1<<TWINT) | (1<<TWEN);
     b2a:	40 93 74 00 	sts	0x0074, r20
	// wait for end of transmission
	while( !(TWCR & (1<<TWINT)) );
     b2e:	90 91 74 00 	lds	r25, 0x0074
     b32:	97 ff       	sbrs	r25, 7
     b34:	fc cf       	rjmp	.-8      	; 0xb2e <i2c_writeReg+0x48>
	
	if( (TWSR & 0xF8) != TW_MT_DATA_ACK ){ return 1; }
     b36:	90 91 71 00 	lds	r25, 0x0071
     b3a:	98 7f       	andi	r25, 0xF8	; 248
     b3c:	98 32       	cpi	r25, 0x28	; 40
     b3e:	61 f4       	brne	.+24     	; 0xb58 <i2c_writeReg+0x72>
{
	if (i2c_start(devaddr | 0x00)) return 1;

	i2c_write(regaddr);

	for (uint16_t i = 0; i < length; i++)
     b40:	ec 17       	cp	r30, r28
     b42:	fd 07       	cpc	r31, r29
     b44:	79 f7       	brne	.-34     	; 0xb24 <i2c_writeReg+0x3e>
}

void i2c_stop(void)
{
	// transmit STOP condition
	TWCR = (1<<TWINT) | (1<<TWEN) | (1<<TWSTO);
     b46:	94 e9       	ldi	r25, 0x94	; 148
     b48:	90 93 74 00 	sts	0x0074, r25
	}

	i2c_stop();

	return 0;
}
     b4c:	df 91       	pop	r29
     b4e:	cf 91       	pop	r28
     b50:	1f 91       	pop	r17
     b52:	0f 91       	pop	r16
     b54:	ff 90       	pop	r15
     b56:	08 95       	ret
	return 0;
}

uint8_t i2c_writeReg(uint8_t devaddr, uint8_t regaddr, uint8_t* data, uint16_t length)
{
	if (i2c_start(devaddr | 0x00)) return 1;
     b58:	81 e0       	ldi	r24, 0x01	; 1
	}

	i2c_stop();

	return 0;
}
     b5a:	df 91       	pop	r29
     b5c:	cf 91       	pop	r28
     b5e:	1f 91       	pop	r17
     b60:	0f 91       	pop	r16
     b62:	ff 90       	pop	r15
     b64:	08 95       	ret

00000b66 <i2c_readReg>:

uint8_t i2c_readReg(uint8_t devaddr, uint8_t regaddr, uint8_t* data, uint16_t length)
{
     b66:	ef 92       	push	r14
     b68:	ff 92       	push	r15
     b6a:	0f 93       	push	r16
     b6c:	1f 93       	push	r17
     b6e:	cf 93       	push	r28
     b70:	df 93       	push	r29
     b72:	18 2f       	mov	r17, r24
     b74:	06 2f       	mov	r16, r22
     b76:	7a 01       	movw	r14, r20
     b78:	e9 01       	movw	r28, r18
	if (i2c_start(devaddr)) return 1;
     b7a:	0e 94 c4 04 	call	0x988	; 0x988 <i2c_start>
     b7e:	81 11       	cpse	r24, r1
     b80:	38 c0       	rjmp	.+112    	; 0xbf2 <i2c_readReg+0x8c>
}

uint8_t i2c_write(uint8_t data)
{
	// load data into data register
	TWDR = data;
     b82:	00 93 73 00 	sts	0x0073, r16
	// start transmission of data
	TWCR = (1<<TWINT) | (1<<TWEN);
     b86:	84 e8       	ldi	r24, 0x84	; 132
     b88:	80 93 74 00 	sts	0x0074, r24
	// wait for end of transmission
	while( !(TWCR & (1<<TWINT)) );
     b8c:	80 91 74 00 	lds	r24, 0x0074
     b90:	87 ff       	sbrs	r24, 7
     b92:	fc cf       	rjmp	.-8      	; 0xb8c <i2c_readReg+0x26>
	
	if( (TWSR & 0xF8) != TW_MT_DATA_ACK ){ return 1; }
     b94:	80 91 71 00 	lds	r24, 0x0071
{
	if (i2c_start(devaddr)) return 1;

	i2c_write(regaddr);

	if (i2c_start(devaddr | 0x01)) return 1;
     b98:	81 2f       	mov	r24, r17
     b9a:	81 60       	ori	r24, 0x01	; 1
     b9c:	0e 94 c4 04 	call	0x988	; 0x988 <i2c_start>
     ba0:	81 11       	cpse	r24, r1
     ba2:	27 c0       	rjmp	.+78     	; 0xbf2 <i2c_readReg+0x8c>

	for (uint16_t i = 0; i < (length-1); i++)
     ba4:	de 01       	movw	r26, r28
     ba6:	11 97       	sbiw	r26, 0x01	; 1
     ba8:	61 f1       	breq	.+88     	; 0xc02 <i2c_readReg+0x9c>
     baa:	f7 01       	movw	r30, r14
     bac:	ae 0d       	add	r26, r14
     bae:	bf 1d       	adc	r27, r15

uint8_t i2c_read_ack(void)
{
	
	// start TWI module and acknowledge data after reception
	TWCR = (1<<TWINT) | (1<<TWEN) | (1<<TWEA); 
     bb0:	24 ec       	ldi	r18, 0xC4	; 196
     bb2:	20 93 74 00 	sts	0x0074, r18
	// wait for end of transmission
	while( !(TWCR & (1<<TWINT)) );
     bb6:	90 91 74 00 	lds	r25, 0x0074
     bba:	97 ff       	sbrs	r25, 7
     bbc:	fc cf       	rjmp	.-8      	; 0xbb6 <i2c_readReg+0x50>
	// return received data from TWDR
	return TWDR;
     bbe:	90 91 73 00 	lds	r25, 0x0073

	if (i2c_start(devaddr | 0x01)) return 1;

	for (uint16_t i = 0; i < (length-1); i++)
	{
		data[i] = i2c_read_ack();
     bc2:	91 93       	st	Z+, r25

	i2c_write(regaddr);

	if (i2c_start(devaddr | 0x01)) return 1;

	for (uint16_t i = 0; i < (length-1); i++)
     bc4:	ea 17       	cp	r30, r26
     bc6:	fb 07       	cpc	r31, r27
     bc8:	a1 f7       	brne	.-24     	; 0xbb2 <i2c_readReg+0x4c>

uint8_t i2c_read_nack(void)
{
	
	// start receiving without acknowledging reception
	TWCR = (1<<TWINT) | (1<<TWEN);
     bca:	94 e8       	ldi	r25, 0x84	; 132
     bcc:	90 93 74 00 	sts	0x0074, r25
	// wait for end of transmission
	while( !(TWCR & (1<<TWINT)) );
     bd0:	90 91 74 00 	lds	r25, 0x0074
     bd4:	97 ff       	sbrs	r25, 7
     bd6:	fc cf       	rjmp	.-8      	; 0xbd0 <i2c_readReg+0x6a>
	// return received data from TWDR
	return TWDR;
     bd8:	90 91 73 00 	lds	r25, 0x0073

	for (uint16_t i = 0; i < (length-1); i++)
	{
		data[i] = i2c_read_ack();
	}
	data[(length-1)] = i2c_read_nack();
     bdc:	9c 93       	st	X, r25
}

void i2c_stop(void)
{
	// transmit STOP condition
	TWCR = (1<<TWINT) | (1<<TWEN) | (1<<TWSTO);
     bde:	94 e9       	ldi	r25, 0x94	; 148
     be0:	90 93 74 00 	sts	0x0074, r25
	data[(length-1)] = i2c_read_nack();

	i2c_stop();

	return 0;
}
     be4:	df 91       	pop	r29
     be6:	cf 91       	pop	r28
     be8:	1f 91       	pop	r17
     bea:	0f 91       	pop	r16
     bec:	ff 90       	pop	r15
     bee:	ef 90       	pop	r14
     bf0:	08 95       	ret
	return 0;
}

uint8_t i2c_readReg(uint8_t devaddr, uint8_t regaddr, uint8_t* data, uint16_t length)
{
	if (i2c_start(devaddr)) return 1;
     bf2:	81 e0       	ldi	r24, 0x01	; 1
	data[(length-1)] = i2c_read_nack();

	i2c_stop();

	return 0;
}
     bf4:	df 91       	pop	r29
     bf6:	cf 91       	pop	r28
     bf8:	1f 91       	pop	r17
     bfa:	0f 91       	pop	r16
     bfc:	ff 90       	pop	r15
     bfe:	ef 90       	pop	r14
     c00:	08 95       	ret
     c02:	d7 01       	movw	r26, r14
     c04:	e2 cf       	rjmp	.-60     	; 0xbca <i2c_readReg+0x64>

00000c06 <i2c_stop>:

void i2c_stop(void)
{
	// transmit STOP condition
	TWCR = (1<<TWINT) | (1<<TWEN) | (1<<TWSTO);
     c06:	84 e9       	ldi	r24, 0x94	; 148
     c08:	80 93 74 00 	sts	0x0074, r24
     c0c:	08 95       	ret

00000c0e <enable_adc>:
#include "./adc.h"


void enable_adc(){
	DDRF = 0x00;
     c0e:	10 92 61 00 	sts	0x0061, r1
	PORTF = 0x00;
     c12:	10 92 62 00 	sts	0x0062, r1
	//internally wire REFSn bits in the ADMUX register to connect VREF 
		//to internal 2.56v reference --> 0.0025 v/step
	//ADMUX = (1 << REFS0) | (1 << REFS1); //2.56v
	ADMUX = (1 << REFS0); //AVCC
     c16:	80 e4       	ldi	r24, 0x40	; 64
     c18:	87 b9       	out	0x07, r24	; 7
	//Single ended input, gain is not allowed
	
	//Default Right Adjusted

	//Set ADEN in ADSCRA to enable ADC
	ADCSRA = (1 << ADEN);
     c1a:	80 e8       	ldi	r24, 0x80	; 128
     c1c:	86 b9       	out	0x06, r24	; 6
	//Set the ADC Clock frequency prescaler to 128 --> 125kHz
	ADCSRA |= (1 << ADPS0) | (1 << ADPS1) | (1 << ADPS2);
     c1e:	86 b1       	in	r24, 0x06	; 6
     c20:	87 60       	ori	r24, 0x07	; 7
     c22:	86 b9       	out	0x06, r24	; 6
	//Set free running mode
	//ADCSRA |= (1 << ADFR);
	//Enable the ADC Interrupt Flag
	//ADCSRA |= (1 << ADIE);
	//Start first conversion by setting ADSC in ADCSRA
	ADCSRA |= (1 << ADSC);
     c24:	36 9a       	sbi	0x06, 6	; 6
     c26:	08 95       	ret

00000c28 <read_adc>:

}
int read_adc(int pin){
     c28:	fc 01       	movw	r30, r24
	int data;
	if (pin > 7){
     c2a:	08 97       	sbiw	r24, 0x08	; 8
     c2c:	fc f4       	brge	.+62     	; 0xc6c <read_adc+0x44>
     c2e:	40 e0       	ldi	r20, 0x00	; 0
     c30:	50 e0       	ldi	r21, 0x00	; 0
		return -1;
	}
	int i;
	//clear all the mux bits
	for (i = 0; i < 5; ++i){
		ADMUX &= ~(1 << i);
     c32:	61 e0       	ldi	r22, 0x01	; 1
     c34:	70 e0       	ldi	r23, 0x00	; 0
     c36:	97 b1       	in	r25, 0x07	; 7
     c38:	9b 01       	movw	r18, r22
     c3a:	04 2e       	mov	r0, r20
     c3c:	01 c0       	rjmp	.+2      	; 0xc40 <read_adc+0x18>
     c3e:	22 0f       	add	r18, r18
     c40:	0a 94       	dec	r0
     c42:	ea f7       	brpl	.-6      	; 0xc3e <read_adc+0x16>
     c44:	20 95       	com	r18
     c46:	29 23       	and	r18, r25
     c48:	27 b9       	out	0x07, r18	; 7
	if (pin > 7){
		return -1;
	}
	int i;
	//clear all the mux bits
	for (i = 0; i < 5; ++i){
     c4a:	4f 5f       	subi	r20, 0xFF	; 255
     c4c:	5f 4f       	sbci	r21, 0xFF	; 255
     c4e:	45 30       	cpi	r20, 0x05	; 5
     c50:	51 05       	cpc	r21, r1
     c52:	89 f7       	brne	.-30     	; 0xc36 <read_adc+0xe>
		ADMUX &= ~(1 << i);
	}
	//set the new mux bit
	ADMUX |= pin;
     c54:	97 b1       	in	r25, 0x07	; 7
     c56:	89 2f       	mov	r24, r25
     c58:	8e 2b       	or	r24, r30
     c5a:	87 b9       	out	0x07, r24	; 7
	ADCSRA |= (1 << ADSC);
     c5c:	36 9a       	sbi	0x06, 6	; 6
	//Wait until ADC registers complete the conversion
	while (!(ADCSRA & (1 << ADIF)));
     c5e:	34 9b       	sbis	0x06, 4	; 6
     c60:	fe cf       	rjmp	.-4      	; 0xc5e <read_adc+0x36>
	data = ADCL;
     c62:	84 b1       	in	r24, 0x04	; 4
	data |= (ADCH << 8);
     c64:	25 b1       	in	r18, 0x05	; 5
     c66:	90 e0       	ldi	r25, 0x00	; 0
     c68:	92 2b       	or	r25, r18
     c6a:	08 95       	ret

}
int read_adc(int pin){
	int data;
	if (pin > 7){
		return -1;
     c6c:	8f ef       	ldi	r24, 0xFF	; 255
     c6e:	9f ef       	ldi	r25, 0xFF	; 255
	//Wait until ADC registers complete the conversion
	while (!(ADCSRA & (1 << ADIF)));
	data = ADCL;
	data |= (ADCH << 8);
	return data;
}
     c70:	08 95       	ret

00000c72 <get_voltage>:
double get_voltage(int adc){
	if (adc < 0 || adc > 7){
     c72:	88 30       	cpi	r24, 0x08	; 8
     c74:	91 05       	cpc	r25, r1
     c76:	20 f0       	brcs	.+8      	; 0xc80 <get_voltage+0xe>
		return 0;
     c78:	60 e0       	ldi	r22, 0x00	; 0
     c7a:	70 e0       	ldi	r23, 0x00	; 0
     c7c:	cb 01       	movw	r24, r22
	}
	return (double)VREF/(1024.0) * (double)read_adc(adc);
}
     c7e:	08 95       	ret
}
double get_voltage(int adc){
	if (adc < 0 || adc > 7){
		return 0;
	}
	return (double)VREF/(1024.0) * (double)read_adc(adc);
     c80:	0e 94 14 06 	call	0xc28	; 0xc28 <read_adc>
     c84:	bc 01       	movw	r22, r24
     c86:	99 0f       	add	r25, r25
     c88:	88 0b       	sbc	r24, r24
     c8a:	99 0b       	sbc	r25, r25
     c8c:	0e 94 d0 0c 	call	0x19a0	; 0x19a0 <__floatsisf>
     c90:	20 e0       	ldi	r18, 0x00	; 0
     c92:	30 e0       	ldi	r19, 0x00	; 0
     c94:	40 ea       	ldi	r20, 0xA0	; 160
     c96:	5b e3       	ldi	r21, 0x3B	; 59
     c98:	0e 94 b4 0d 	call	0x1b68	; 0x1b68 <__mulsf3>
     c9c:	08 95       	ret

00000c9e <strobe_lcd>:
#include "lcd.h"

//twiddles bit 3, PORTF creating the enable signal for the LCD
void strobe_lcd(void){
    PORTF |= 0x08;
     c9e:	e2 e6       	ldi	r30, 0x62	; 98
     ca0:	f0 e0       	ldi	r31, 0x00	; 0
     ca2:	80 81       	ld	r24, Z
     ca4:	88 60       	ori	r24, 0x08	; 8
     ca6:	80 83       	st	Z, r24
    PORTF &= ~0x08;
     ca8:	80 81       	ld	r24, Z
     caa:	87 7f       	andi	r24, 0xF7	; 247
     cac:	80 83       	st	Z, r24
     cae:	08 95       	ret

00000cb0 <clear_display>:
}

void clear_display(void){
    while (!(SPSR & 0x80)) {}   // Wait for SPI transfer to complete
     cb0:	77 9b       	sbis	0x0e, 7	; 14
     cb2:	fe cf       	rjmp	.-4      	; 0xcb0 <clear_display>
    SPDR = 0x00;    //command, not data
     cb4:	1f b8       	out	0x0f, r1	; 15
    while (!(SPSR & 0x80)) {}   // Wait for SPI transfer to complete
     cb6:	77 9b       	sbis	0x0e, 7	; 14
     cb8:	fe cf       	rjmp	.-4      	; 0xcb6 <clear_display+0x6>
    SPDR = 0x01;    //clear display command
     cba:	81 e0       	ldi	r24, 0x01	; 1
     cbc:	8f b9       	out	0x0f, r24	; 15
    while (!(SPSR & 0x80)) {}   // Wait for SPI transfer to complete
     cbe:	77 9b       	sbis	0x0e, 7	; 14
     cc0:	fe cf       	rjmp	.-4      	; 0xcbe <clear_display+0xe>
#include "lcd.h"

//twiddles bit 3, PORTF creating the enable signal for the LCD
void strobe_lcd(void){
    PORTF |= 0x08;
     cc2:	80 91 62 00 	lds	r24, 0x0062
     cc6:	88 60       	ori	r24, 0x08	; 8
     cc8:	80 93 62 00 	sts	0x0062, r24
    PORTF &= ~0x08;
     ccc:	80 91 62 00 	lds	r24, 0x0062
     cd0:	87 7f       	andi	r24, 0xF7	; 247
     cd2:	80 93 62 00 	sts	0x0062, r24
     cd6:	8f e9       	ldi	r24, 0x9F	; 159
     cd8:	98 e2       	ldi	r25, 0x28	; 40
     cda:	01 97       	sbiw	r24, 0x01	; 1
     cdc:	f1 f7       	brne	.-4      	; 0xcda <clear_display+0x2a>
     cde:	00 c0       	rjmp	.+0      	; 0xce0 <clear_display+0x30>
     ce0:	00 00       	nop
     ce2:	08 95       	ret

00000ce4 <home_line2>:
    strobe_lcd();   //strobe the LCD enable pin
    _delay_ms(2.6);   //obligatory waiting for slow LCD
}

void home_line2(void){
    SPDR = 0x00;    //command, not data
     ce4:	1f b8       	out	0x0f, r1	; 15
    while (!(SPSR & 0x80)) {}   // Wait for SPI transfer to complete
     ce6:	77 9b       	sbis	0x0e, 7	; 14
     ce8:	fe cf       	rjmp	.-4      	; 0xce6 <home_line2+0x2>
    SPDR = 0xC0;   // cursor go home on line 2
     cea:	80 ec       	ldi	r24, 0xC0	; 192
     cec:	8f b9       	out	0x0f, r24	; 15
    while (!(SPSR & 0x80)) {}   // Wait for SPI transfer to complete
     cee:	77 9b       	sbis	0x0e, 7	; 14
     cf0:	fe cf       	rjmp	.-4      	; 0xcee <home_line2+0xa>
#include "lcd.h"

//twiddles bit 3, PORTF creating the enable signal for the LCD
void strobe_lcd(void){
    PORTF |= 0x08;
     cf2:	80 91 62 00 	lds	r24, 0x0062
     cf6:	88 60       	ori	r24, 0x08	; 8
     cf8:	80 93 62 00 	sts	0x0062, r24
    PORTF &= ~0x08;
     cfc:	80 91 62 00 	lds	r24, 0x0062
     d00:	87 7f       	andi	r24, 0xF7	; 247
     d02:	80 93 62 00 	sts	0x0062, r24
	#else
		//round up by default
		__ticks_dc = (uint32_t)(ceil(fabs(__tmp)));
	#endif

	__builtin_avr_delay_cycles(__ticks_dc);
     d06:	85 ec       	ldi	r24, 0xC5	; 197
     d08:	8a 95       	dec	r24
     d0a:	f1 f7       	brne	.-4      	; 0xd08 <home_line2+0x24>
     d0c:	00 00       	nop
     d0e:	08 95       	ret

00000d10 <char2lcd>:

//sends a char to the LCD
void char2lcd(unsigned char a_char){
    //sends a char to the LCD
    //usage: char2lcd('H');  // send an H to the LCD
    SPDR = 0x01;   //set SR for data xfer with LSB=1
     d10:	91 e0       	ldi	r25, 0x01	; 1
     d12:	9f b9       	out	0x0f, r25	; 15
    while (!(SPSR & 0x80)) {}   // Wait for SPI transfer to complete
     d14:	77 9b       	sbis	0x0e, 7	; 14
     d16:	fe cf       	rjmp	.-4      	; 0xd14 <char2lcd+0x4>
    SPDR = a_char; //send the char to the SPI port
     d18:	8f b9       	out	0x0f, r24	; 15
    while (!(SPSR & 0x80)) {}   // Wait for SPI transfer to complete
     d1a:	77 9b       	sbis	0x0e, 7	; 14
     d1c:	fe cf       	rjmp	.-4      	; 0xd1a <char2lcd+0xa>
#include "lcd.h"

//twiddles bit 3, PORTF creating the enable signal for the LCD
void strobe_lcd(void){
    PORTF |= 0x08;
     d1e:	80 91 62 00 	lds	r24, 0x0062
     d22:	88 60       	ori	r24, 0x08	; 8
     d24:	80 93 62 00 	sts	0x0062, r24
    PORTF &= ~0x08;
     d28:	80 91 62 00 	lds	r24, 0x0062
     d2c:	87 7f       	andi	r24, 0xF7	; 247
     d2e:	80 93 62 00 	sts	0x0062, r24
     d32:	85 ec       	ldi	r24, 0xC5	; 197
     d34:	8a 95       	dec	r24
     d36:	f1 f7       	brne	.-4      	; 0xd34 <char2lcd+0x24>
     d38:	00 00       	nop
     d3a:	08 95       	ret

00000d3c <string2lcd>:
    strobe_lcd();  //toggle the enable bit
    _delay_us(37);
}

//sends a string in FLASH to LCD
void string2lcd(unsigned char *lcd_str){
     d3c:	cf 93       	push	r28
     d3e:	df 93       	push	r29
     d40:	fc 01       	movw	r30, r24
     d42:	dc 01       	movw	r26, r24
    int count;
    for (count=0; count<=(strlen((char*)lcd_str)-1); count++){
     d44:	40 e0       	ldi	r20, 0x00	; 0
     d46:	50 e0       	ldi	r21, 0x00	; 0
        while (!(SPSR & 0x80)) {}   // Wait for SPI transfer to complete
        SPDR = 0x01; //set SR for data
     d48:	61 e0       	ldi	r22, 0x01	; 1

//sends a string in FLASH to LCD
void string2lcd(unsigned char *lcd_str){
    int count;
    for (count=0; count<=(strlen((char*)lcd_str)-1); count++){
        while (!(SPSR & 0x80)) {}   // Wait for SPI transfer to complete
     d4a:	77 9b       	sbis	0x0e, 7	; 14
     d4c:	fe cf       	rjmp	.-4      	; 0xd4a <string2lcd+0xe>
        SPDR = 0x01; //set SR for data
     d4e:	6f b9       	out	0x0f, r22	; 15
        while (!(SPSR & 0x80)) {}   // Wait for SPI transfer to complete
     d50:	77 9b       	sbis	0x0e, 7	; 14
     d52:	fe cf       	rjmp	.-4      	; 0xd50 <string2lcd+0x14>
        SPDR = lcd_str[count]; 
     d54:	8d 91       	ld	r24, X+
     d56:	8f b9       	out	0x0f, r24	; 15
        while (!(SPSR & 0x80)) {}   // Wait for SPI transfer to complete
     d58:	77 9b       	sbis	0x0e, 7	; 14
     d5a:	fe cf       	rjmp	.-4      	; 0xd58 <string2lcd+0x1c>
#include "lcd.h"

//twiddles bit 3, PORTF creating the enable signal for the LCD
void strobe_lcd(void){
    PORTF |= 0x08;
     d5c:	90 91 62 00 	lds	r25, 0x0062
     d60:	98 60       	ori	r25, 0x08	; 8
     d62:	90 93 62 00 	sts	0x0062, r25
    PORTF &= ~0x08;
     d66:	90 91 62 00 	lds	r25, 0x0062
     d6a:	97 7f       	andi	r25, 0xF7	; 247
     d6c:	90 93 62 00 	sts	0x0062, r25
     d70:	85 ec       	ldi	r24, 0xC5	; 197
     d72:	8a 95       	dec	r24
     d74:	f1 f7       	brne	.-4      	; 0xd72 <string2lcd+0x36>
     d76:	00 00       	nop
}

//sends a string in FLASH to LCD
void string2lcd(unsigned char *lcd_str){
    int count;
    for (count=0; count<=(strlen((char*)lcd_str)-1); count++){
     d78:	4f 5f       	subi	r20, 0xFF	; 255
     d7a:	5f 4f       	sbci	r21, 0xFF	; 255
     d7c:	ef 01       	movw	r28, r30
     d7e:	09 90       	ld	r0, Y+
     d80:	00 20       	and	r0, r0
     d82:	e9 f7       	brne	.-6      	; 0xd7e <string2lcd+0x42>
     d84:	9e 01       	movw	r18, r28
     d86:	2e 1b       	sub	r18, r30
     d88:	3f 0b       	sbc	r19, r31
     d8a:	22 50       	subi	r18, 0x02	; 2
     d8c:	31 09       	sbc	r19, r1
     d8e:	24 17       	cp	r18, r20
     d90:	35 07       	cpc	r19, r21
     d92:	d8 f6       	brcc	.-74     	; 0xd4a <string2lcd+0xe>
        SPDR = lcd_str[count]; 
        while (!(SPSR & 0x80)) {}   // Wait for SPI transfer to complete
        strobe_lcd();
        _delay_us(37);  // Max delay for this function is 48us
    }
}   
     d94:	df 91       	pop	r29
     d96:	cf 91       	pop	r28
     d98:	08 95       	ret

00000d9a <spi_init>:

/* Run this code before attempting to write to the LCD.*/
void spi_init(void){
    DDRF |= 0x08;  //port F bit 3 is enable for LCD
     d9a:	e1 e6       	ldi	r30, 0x61	; 97
     d9c:	f0 e0       	ldi	r31, 0x00	; 0
     d9e:	80 81       	ld	r24, Z
     da0:	88 60       	ori	r24, 0x08	; 8
     da2:	80 83       	st	Z, r24
    PORTB |= 0x00; //port B initalization for SPI
     da4:	88 b3       	in	r24, 0x18	; 24
     da6:	88 bb       	out	0x18, r24	; 24
    DDRB |= 0x07;  //Turn on SS, MOSI, SCLK 
     da8:	87 b3       	in	r24, 0x17	; 23
     daa:	87 60       	ori	r24, 0x07	; 7
     dac:	87 bb       	out	0x17, r24	; 23
    //Master mode, Clock=clk/2, Cycle half phase, Low polarity, MSB first  
    SPCR = 0x50;
     dae:	80 e5       	ldi	r24, 0x50	; 80
     db0:	8d b9       	out	0x0d, r24	; 13
    SPSR = 0x01;
     db2:	81 e0       	ldi	r24, 0x01	; 1
     db4:	8e b9       	out	0x0e, r24	; 14
     db6:	08 95       	ret

00000db8 <lcd_init>:
	#else
		//round up by default
		__ticks_dc = (uint32_t)(ceil(fabs(__tmp)));
	#endif

	__builtin_avr_delay_cycles(__ticks_dc);
     db8:	8f e5       	ldi	r24, 0x5F	; 95
     dba:	9a ee       	ldi	r25, 0xEA	; 234
     dbc:	01 97       	sbiw	r24, 0x01	; 1
     dbe:	f1 f7       	brne	.-4      	; 0xdbc <lcd_init+0x4>
     dc0:	00 c0       	rjmp	.+0      	; 0xdc2 <lcd_init+0xa>
     dc2:	00 00       	nop
     dc4:	23 e0       	ldi	r18, 0x03	; 3
     dc6:	30 e0       	ldi	r19, 0x00	; 0
    //initalize the LCD to receive data
    _delay_ms(15);   
    for(i=0; i<=2; i++){ //do funky initalize sequence 3 times
        SPDR = 0x00;
        while (!(SPSR & 0x80)) {}   // Wait for SPI transfer to complete
        SPDR = 0x30;
     dc8:	90 e3       	ldi	r25, 0x30	; 48
void lcd_init(void){
    int i;
    //initalize the LCD to receive data
    _delay_ms(15);   
    for(i=0; i<=2; i++){ //do funky initalize sequence 3 times
        SPDR = 0x00;
     dca:	1f b8       	out	0x0f, r1	; 15
        while (!(SPSR & 0x80)) {}   // Wait for SPI transfer to complete
     dcc:	77 9b       	sbis	0x0e, 7	; 14
     dce:	fe cf       	rjmp	.-4      	; 0xdcc <lcd_init+0x14>
        SPDR = 0x30;
     dd0:	9f b9       	out	0x0f, r25	; 15
        while (!(SPSR & 0x80)) {}   // Wait for SPI transfer to complete
     dd2:	77 9b       	sbis	0x0e, 7	; 14
     dd4:	fe cf       	rjmp	.-4      	; 0xdd2 <lcd_init+0x1a>
#include "lcd.h"

//twiddles bit 3, PORTF creating the enable signal for the LCD
void strobe_lcd(void){
    PORTF |= 0x08;
     dd6:	80 91 62 00 	lds	r24, 0x0062
     dda:	88 60       	ori	r24, 0x08	; 8
     ddc:	80 93 62 00 	sts	0x0062, r24
    PORTF &= ~0x08;
     de0:	80 91 62 00 	lds	r24, 0x0062
     de4:	87 7f       	andi	r24, 0xF7	; 247
     de6:	80 93 62 00 	sts	0x0062, r24
	#else
		//round up by default
		__ticks_dc = (uint32_t)(ceil(fabs(__tmp)));
	#endif

	__builtin_avr_delay_cycles(__ticks_dc);
     dea:	85 ec       	ldi	r24, 0xC5	; 197
     dec:	8a 95       	dec	r24
     dee:	f1 f7       	brne	.-4      	; 0xdec <lcd_init+0x34>
     df0:	00 00       	nop
     df2:	21 50       	subi	r18, 0x01	; 1
     df4:	31 09       	sbc	r19, r1
//initialize the LCD to receive data
void lcd_init(void){
    int i;
    //initalize the LCD to receive data
    _delay_ms(15);   
    for(i=0; i<=2; i++){ //do funky initalize sequence 3 times
     df6:	49 f7       	brne	.-46     	; 0xdca <lcd_init+0x12>
        while (!(SPSR & 0x80)) {}   // Wait for SPI transfer to complete
        strobe_lcd();
        _delay_us(37);
    }

    SPDR = 0x00;
     df8:	1f b8       	out	0x0f, r1	; 15
    while (!(SPSR & 0x80)) {}   // Wait for SPI transfer to complete
     dfa:	77 9b       	sbis	0x0e, 7	; 14
     dfc:	fe cf       	rjmp	.-4      	; 0xdfa <lcd_init+0x42>
    SPDR = 0x38;
     dfe:	88 e3       	ldi	r24, 0x38	; 56
     e00:	8f b9       	out	0x0f, r24	; 15
    while (!(SPSR & 0x80)) {}   // Wait for SPI transfer to complete
     e02:	77 9b       	sbis	0x0e, 7	; 14
     e04:	fe cf       	rjmp	.-4      	; 0xe02 <lcd_init+0x4a>
#include "lcd.h"

//twiddles bit 3, PORTF creating the enable signal for the LCD
void strobe_lcd(void){
    PORTF |= 0x08;
     e06:	80 91 62 00 	lds	r24, 0x0062
     e0a:	88 60       	ori	r24, 0x08	; 8
     e0c:	80 93 62 00 	sts	0x0062, r24
    PORTF &= ~0x08;
     e10:	80 91 62 00 	lds	r24, 0x0062
     e14:	87 7f       	andi	r24, 0xF7	; 247
     e16:	80 93 62 00 	sts	0x0062, r24
     e1a:	95 ec       	ldi	r25, 0xC5	; 197
     e1c:	9a 95       	dec	r25
     e1e:	f1 f7       	brne	.-4      	; 0xe1c <lcd_init+0x64>
     e20:	00 00       	nop
    SPDR = 0x38;
    while (!(SPSR & 0x80)) {}   // Wait for SPI transfer to complete
    strobe_lcd();
    _delay_us(37);

    SPDR = 0x00;
     e22:	1f b8       	out	0x0f, r1	; 15
    while (!(SPSR & 0x80)) {}   // Wait for SPI transfer to complete
     e24:	77 9b       	sbis	0x0e, 7	; 14
     e26:	fe cf       	rjmp	.-4      	; 0xe24 <lcd_init+0x6c>
    SPDR = 0x08;
     e28:	88 e0       	ldi	r24, 0x08	; 8
     e2a:	8f b9       	out	0x0f, r24	; 15
    while (!(SPSR & 0x80)) {}   // Wait for SPI transfer to complete
     e2c:	77 9b       	sbis	0x0e, 7	; 14
     e2e:	fe cf       	rjmp	.-4      	; 0xe2c <lcd_init+0x74>
#include "lcd.h"

//twiddles bit 3, PORTF creating the enable signal for the LCD
void strobe_lcd(void){
    PORTF |= 0x08;
     e30:	80 91 62 00 	lds	r24, 0x0062
     e34:	88 60       	ori	r24, 0x08	; 8
     e36:	80 93 62 00 	sts	0x0062, r24
    PORTF &= ~0x08;
     e3a:	80 91 62 00 	lds	r24, 0x0062
     e3e:	87 7f       	andi	r24, 0xF7	; 247
     e40:	80 93 62 00 	sts	0x0062, r24
     e44:	85 ec       	ldi	r24, 0xC5	; 197
     e46:	8a 95       	dec	r24
     e48:	f1 f7       	brne	.-4      	; 0xe46 <lcd_init+0x8e>
     e4a:	00 00       	nop
    SPDR = 0x08;
    while (!(SPSR & 0x80)) {}   // Wait for SPI transfer to complete
    strobe_lcd();
    _delay_us(37);

    SPDR = 0x00;
     e4c:	1f b8       	out	0x0f, r1	; 15
    while (!(SPSR & 0x80)) {}   // Wait for SPI transfer to complete
     e4e:	77 9b       	sbis	0x0e, 7	; 14
     e50:	fe cf       	rjmp	.-4      	; 0xe4e <lcd_init+0x96>
    SPDR = 0x01;
     e52:	81 e0       	ldi	r24, 0x01	; 1
     e54:	8f b9       	out	0x0f, r24	; 15
    while (!(SPSR & 0x80)) {}   // Wait for SPI transfer to complete
     e56:	77 9b       	sbis	0x0e, 7	; 14
     e58:	fe cf       	rjmp	.-4      	; 0xe56 <lcd_init+0x9e>
#include "lcd.h"

//twiddles bit 3, PORTF creating the enable signal for the LCD
void strobe_lcd(void){
    PORTF |= 0x08;
     e5a:	80 91 62 00 	lds	r24, 0x0062
     e5e:	88 60       	ori	r24, 0x08	; 8
     e60:	80 93 62 00 	sts	0x0062, r24
    PORTF &= ~0x08;
     e64:	80 91 62 00 	lds	r24, 0x0062
     e68:	87 7f       	andi	r24, 0xF7	; 247
     e6a:	80 93 62 00 	sts	0x0062, r24
	#else
		//round up by default
		__ticks_dc = (uint32_t)(ceil(fabs(__tmp)));
	#endif

	__builtin_avr_delay_cycles(__ticks_dc);
     e6e:	8f ef       	ldi	r24, 0xFF	; 255
     e70:	98 e1       	ldi	r25, 0x18	; 24
     e72:	01 97       	sbiw	r24, 0x01	; 1
     e74:	f1 f7       	brne	.-4      	; 0xe72 <lcd_init+0xba>
     e76:	00 c0       	rjmp	.+0      	; 0xe78 <lcd_init+0xc0>
     e78:	00 00       	nop
    SPDR = 0x01;
    while (!(SPSR & 0x80)) {}   // Wait for SPI transfer to complete
    strobe_lcd();
    _delay_ms(1.6);

    SPDR = 0x00;
     e7a:	1f b8       	out	0x0f, r1	; 15
    while (!(SPSR & 0x80)) {}   // Wait for SPI transfer to complete
     e7c:	77 9b       	sbis	0x0e, 7	; 14
     e7e:	fe cf       	rjmp	.-4      	; 0xe7c <lcd_init+0xc4>
    SPDR = 0x06;
     e80:	86 e0       	ldi	r24, 0x06	; 6
     e82:	8f b9       	out	0x0f, r24	; 15
    while (!(SPSR & 0x80)) {}   // Wait for SPI transfer to complete
     e84:	77 9b       	sbis	0x0e, 7	; 14
     e86:	fe cf       	rjmp	.-4      	; 0xe84 <lcd_init+0xcc>
#include "lcd.h"

//twiddles bit 3, PORTF creating the enable signal for the LCD
void strobe_lcd(void){
    PORTF |= 0x08;
     e88:	80 91 62 00 	lds	r24, 0x0062
     e8c:	88 60       	ori	r24, 0x08	; 8
     e8e:	80 93 62 00 	sts	0x0062, r24
    PORTF &= ~0x08;
     e92:	80 91 62 00 	lds	r24, 0x0062
     e96:	87 7f       	andi	r24, 0xF7	; 247
     e98:	80 93 62 00 	sts	0x0062, r24
	#else
		//round up by default
		__ticks_dc = (uint32_t)(ceil(fabs(__tmp)));
	#endif

	__builtin_avr_delay_cycles(__ticks_dc);
     e9c:	95 ec       	ldi	r25, 0xC5	; 197
     e9e:	9a 95       	dec	r25
     ea0:	f1 f7       	brne	.-4      	; 0xe9e <lcd_init+0xe6>
     ea2:	00 00       	nop
    SPDR = 0x06;
    while (!(SPSR & 0x80)) {}   // Wait for SPI transfer to complete
    strobe_lcd();
    _delay_us(37);

    SPDR = 0x00;
     ea4:	1f b8       	out	0x0f, r1	; 15
    while (!(SPSR & 0x80)) {}   // Wait for SPI transfer to complete
     ea6:	77 9b       	sbis	0x0e, 7	; 14
     ea8:	fe cf       	rjmp	.-4      	; 0xea6 <lcd_init+0xee>
    SPDR = 0x0E;
     eaa:	8e e0       	ldi	r24, 0x0E	; 14
     eac:	8f b9       	out	0x0f, r24	; 15
    while (!(SPSR & 0x80)) {}   // Wait for SPI transfer to complete
     eae:	77 9b       	sbis	0x0e, 7	; 14
     eb0:	fe cf       	rjmp	.-4      	; 0xeae <lcd_init+0xf6>
#include "lcd.h"

//twiddles bit 3, PORTF creating the enable signal for the LCD
void strobe_lcd(void){
    PORTF |= 0x08;
     eb2:	80 91 62 00 	lds	r24, 0x0062
     eb6:	88 60       	ori	r24, 0x08	; 8
     eb8:	80 93 62 00 	sts	0x0062, r24
    PORTF &= ~0x08;
     ebc:	80 91 62 00 	lds	r24, 0x0062
     ec0:	87 7f       	andi	r24, 0xF7	; 247
     ec2:	80 93 62 00 	sts	0x0062, r24
     ec6:	85 ec       	ldi	r24, 0xC5	; 197
     ec8:	8a 95       	dec	r24
     eca:	f1 f7       	brne	.-4      	; 0xec8 <lcd_init+0x110>
     ecc:	00 00       	nop
     ece:	08 95       	ret

00000ed0 <USART1_Init>:
#include "uart.h"


void USART1_Init( unsigned int ubrr ) {
    /* Set baud rate */
    UBRR1H = (unsigned char)(ubrr>>8);
     ed0:	90 93 98 00 	sts	0x0098, r25
    UBRR1L = (unsigned char)ubrr;
     ed4:	80 93 99 00 	sts	0x0099, r24
    /* Enable receiver and transmitter */ 
    UCSR1B = (1<<RXEN1)|(1<<TXEN1);
     ed8:	88 e1       	ldi	r24, 0x18	; 24
     eda:	80 93 9a 00 	sts	0x009A, r24
    /* Set frame format: 8data, 2stop bit */ 
    UCSR1C = (3<<UCSZ10);
     ede:	86 e0       	ldi	r24, 0x06	; 6
     ee0:	80 93 9d 00 	sts	0x009D, r24
	#else
		//round up by default
		__ticks_dc = (uint32_t)(ceil(fabs(__tmp)));
	#endif

	__builtin_avr_delay_cycles(__ticks_dc);
     ee4:	2f ef       	ldi	r18, 0xFF	; 255
     ee6:	81 ee       	ldi	r24, 0xE1	; 225
     ee8:	94 e0       	ldi	r25, 0x04	; 4
     eea:	21 50       	subi	r18, 0x01	; 1
     eec:	80 40       	sbci	r24, 0x00	; 0
     eee:	90 40       	sbci	r25, 0x00	; 0
     ef0:	e1 f7       	brne	.-8      	; 0xeea <USART1_Init+0x1a>
     ef2:	00 c0       	rjmp	.+0      	; 0xef4 <USART1_Init+0x24>
     ef4:	00 00       	nop
     ef6:	08 95       	ret

00000ef8 <USART1_Transmit>:
    _delay_ms(100);
}
void USART1_Transmit(unsigned char data ) {
    /* Wait for empty transmit buffer */ 
    while ( !( UCSR1A & (1<<UDRE1)) );
     ef8:	90 91 9b 00 	lds	r25, 0x009B
     efc:	95 ff       	sbrs	r25, 5
     efe:	fc cf       	rjmp	.-8      	; 0xef8 <USART1_Transmit>
    /* Put data into buffer, sends the data */ 
    UDR1 = data;
     f00:	80 93 9c 00 	sts	0x009C, r24
     f04:	08 95       	ret

00000f06 <USART1_send_string>:
}

void USART1_send_string(unsigned char *data){
    int i = 0;
    while (data[i] != '\0'){
     f06:	fc 01       	movw	r30, r24
     f08:	20 81       	ld	r18, Z
     f0a:	22 23       	and	r18, r18
     f0c:	51 f0       	breq	.+20     	; 0xf22 <USART1_send_string+0x1c>
     f0e:	31 96       	adiw	r30, 0x01	; 1
    UCSR1C = (3<<UCSZ10);
    _delay_ms(100);
}
void USART1_Transmit(unsigned char data ) {
    /* Wait for empty transmit buffer */ 
    while ( !( UCSR1A & (1<<UDRE1)) );
     f10:	90 91 9b 00 	lds	r25, 0x009B
     f14:	95 ff       	sbrs	r25, 5
     f16:	fc cf       	rjmp	.-8      	; 0xf10 <USART1_send_string+0xa>
    /* Put data into buffer, sends the data */ 
    UDR1 = data;
     f18:	20 93 9c 00 	sts	0x009C, r18
}

void USART1_send_string(unsigned char *data){
    int i = 0;
    while (data[i] != '\0'){
     f1c:	21 91       	ld	r18, Z+
     f1e:	21 11       	cpse	r18, r1
     f20:	f7 cf       	rjmp	.-18     	; 0xf10 <USART1_send_string+0xa>
     f22:	08 95       	ret

00000f24 <USART1_Receive>:
    
    // return 255;
    /**********
    * This is the original
    ***********/
    while (!(UCSR1A & (1<<RXC1)));
     f24:	80 91 9b 00 	lds	r24, 0x009B
     f28:	87 ff       	sbrs	r24, 7
     f2a:	fc cf       	rjmp	.-8      	; 0xf24 <USART1_Receive>
    return UDR1;
     f2c:	80 91 9c 00 	lds	r24, 0x009C
}
     f30:	08 95       	ret

00000f32 <USART1_Receive_String>:

void USART1_Receive_String(unsigned char *str){
     f32:	dc 01       	movw	r26, r24
     f34:	fc 01       	movw	r30, r24
     f36:	9c 01       	movw	r18, r24
     f38:	2b 5f       	subi	r18, 0xFB	; 251
     f3a:	3f 4f       	sbci	r19, 0xFF	; 255
    
    // return 255;
    /**********
    * This is the original
    ***********/
    while (!(UCSR1A & (1<<RXC1)));
     f3c:	90 91 9b 00 	lds	r25, 0x009B
     f40:	97 ff       	sbrs	r25, 7
     f42:	fc cf       	rjmp	.-8      	; 0xf3c <USART1_Receive_String+0xa>
    return UDR1;
     f44:	90 91 9c 00 	lds	r25, 0x009C

void USART1_Receive_String(unsigned char *str){
    int i = 0;
    char c;

    while ((c = USART1_Receive()) != END_STRING){ //END_STRING == ~ or 0x7E
     f48:	9e 37       	cpi	r25, 0x7E	; 126
     f4a:	29 f0       	breq	.+10     	; 0xf56 <USART1_Receive_String+0x24>
        
        if (c == 255 || i > MAX_STRING_SIZE - 1){
     f4c:	e2 17       	cp	r30, r18
     f4e:	f3 07       	cpc	r31, r19
     f50:	19 f0       	breq	.+6      	; 0xf58 <USART1_Receive_String+0x26>
            str[2] = 75;
            str[3] = END_STRING;
            str[4] = '\0';
            break;
        }
        str[i] = c;
     f52:	91 93       	st	Z+, r25
     f54:	f3 cf       	rjmp	.-26     	; 0xf3c <USART1_Receive_String+0xa>
     f56:	08 95       	ret
    char c;

    while ((c = USART1_Receive()) != END_STRING){ //END_STRING == ~ or 0x7E
        
        if (c == 255 || i > MAX_STRING_SIZE - 1){
            str[0] = 50;
     f58:	82 e3       	ldi	r24, 0x32	; 50
     f5a:	8c 93       	st	X, r24
            str[1] = 25;
     f5c:	89 e1       	ldi	r24, 0x19	; 25
     f5e:	11 96       	adiw	r26, 0x01	; 1
     f60:	8c 93       	st	X, r24
     f62:	11 97       	sbiw	r26, 0x01	; 1
            str[2] = 75;
     f64:	8b e4       	ldi	r24, 0x4B	; 75
     f66:	12 96       	adiw	r26, 0x02	; 2
     f68:	8c 93       	st	X, r24
     f6a:	12 97       	sbiw	r26, 0x02	; 2
            str[3] = END_STRING;
     f6c:	8e e7       	ldi	r24, 0x7E	; 126
     f6e:	13 96       	adiw	r26, 0x03	; 3
     f70:	8c 93       	st	X, r24
     f72:	13 97       	sbiw	r26, 0x03	; 3
            str[4] = '\0';
     f74:	14 96       	adiw	r26, 0x04	; 4
     f76:	1c 92       	st	X, r1
            break;
     f78:	08 95       	ret

00000f7a <USART1_flush>:
        str[i] = c;
        ++i;
    }
}

void USART1_flush(){
     f7a:	e0 ea       	ldi	r30, 0xA0	; 160
     f7c:	f2 e0       	ldi	r31, 0x02	; 2
     f7e:	96 e4       	ldi	r25, 0x46	; 70
    UCSR1C = (3<<UCSZ10);
    _delay_ms(100);
}
void USART1_Transmit(unsigned char data ) {
    /* Wait for empty transmit buffer */ 
    while ( !( UCSR1A & (1<<UDRE1)) );
     f80:	80 91 9b 00 	lds	r24, 0x009B
     f84:	85 ff       	sbrs	r24, 5
     f86:	fc cf       	rjmp	.-8      	; 0xf80 <USART1_flush+0x6>
    /* Put data into buffer, sends the data */ 
    UDR1 = data;
     f88:	90 93 9c 00 	sts	0x009C, r25
}

void USART1_send_string(unsigned char *data){
    int i = 0;
    while (data[i] != '\0'){
     f8c:	91 91       	ld	r25, Z+
     f8e:	91 11       	cpse	r25, r1
     f90:	f7 cf       	rjmp	.-18     	; 0xf80 <USART1_flush+0x6>
}

void USART1_flush(){
    unsigned char dummy;
    USART1_send_string((unsigned char *)"Flushing UART1");
    while (UCSR1A & (1 << RXC1)){
     f92:	80 91 9b 00 	lds	r24, 0x009B
     f96:	87 ff       	sbrs	r24, 7
     f98:	0c c0       	rjmp	.+24     	; 0xfb2 <USART1_flush+0x38>
        dummy = UDR1;
     f9a:	90 91 9c 00 	lds	r25, 0x009C
    UCSR1C = (3<<UCSZ10);
    _delay_ms(100);
}
void USART1_Transmit(unsigned char data ) {
    /* Wait for empty transmit buffer */ 
    while ( !( UCSR1A & (1<<UDRE1)) );
     f9e:	80 91 9b 00 	lds	r24, 0x009B
     fa2:	85 ff       	sbrs	r24, 5
     fa4:	fc cf       	rjmp	.-8      	; 0xf9e <USART1_flush+0x24>
    /* Put data into buffer, sends the data */ 
    UDR1 = data;
     fa6:	90 93 9c 00 	sts	0x009C, r25
}

void USART1_flush(){
    unsigned char dummy;
    USART1_send_string((unsigned char *)"Flushing UART1");
    while (UCSR1A & (1 << RXC1)){
     faa:	80 91 9b 00 	lds	r24, 0x009B
     fae:	87 fd       	sbrc	r24, 7
     fb0:	f4 cf       	rjmp	.-24     	; 0xf9a <USART1_flush+0x20>
     fb2:	08 95       	ret

00000fb4 <USART0_Init>:
}


void USART0_Init( unsigned int ubrr ) {
    /* Set baud rate */
    UBRR0H = (unsigned char)(ubrr>>8);
     fb4:	90 93 90 00 	sts	0x0090, r25
    UBRR0L = (unsigned char)ubrr;
     fb8:	89 b9       	out	0x09, r24	; 9
    /* Enable receiver and transmitter */ 
    UCSR0B = (1<<RXEN0)|(1<<TXEN0);
     fba:	88 e1       	ldi	r24, 0x18	; 24
     fbc:	8a b9       	out	0x0a, r24	; 10
    /* Set frame format: 8data, 2stop bit */ 
    UCSR0C = (1 << USBS0) | (3<<UCSZ00);
     fbe:	8e e0       	ldi	r24, 0x0E	; 14
     fc0:	80 93 95 00 	sts	0x0095, r24
     fc4:	2f ef       	ldi	r18, 0xFF	; 255
     fc6:	81 ee       	ldi	r24, 0xE1	; 225
     fc8:	94 e0       	ldi	r25, 0x04	; 4
     fca:	21 50       	subi	r18, 0x01	; 1
     fcc:	80 40       	sbci	r24, 0x00	; 0
     fce:	90 40       	sbci	r25, 0x00	; 0
     fd0:	e1 f7       	brne	.-8      	; 0xfca <USART0_Init+0x16>
     fd2:	00 c0       	rjmp	.+0      	; 0xfd4 <USART0_Init+0x20>
     fd4:	00 00       	nop
     fd6:	08 95       	ret

00000fd8 <USART0_Transmit>:
    _delay_ms(100);
}
void USART0_Transmit(unsigned char data ) {
    /* Wait for empty transmit buffer */ 
    while ( !( UCSR0A & (1<<UDRE0)) );
     fd8:	5d 9b       	sbis	0x0b, 5	; 11
     fda:	fe cf       	rjmp	.-4      	; 0xfd8 <USART0_Transmit>
    /* Put data into buffer, sends the data */ 
    UDR0 = data;
     fdc:	8c b9       	out	0x0c, r24	; 12
     fde:	08 95       	ret

00000fe0 <USART0_send_string>:
}

void USART0_send_string(unsigned char *data){
     fe0:	fc 01       	movw	r30, r24
    int i = 0;
    while (data[i] != '\0'){
     fe2:	90 81       	ld	r25, Z
     fe4:	99 23       	and	r25, r25
     fe6:	39 f0       	breq	.+14     	; 0xff6 <USART0_send_string+0x16>
     fe8:	31 96       	adiw	r30, 0x01	; 1
    UCSR0C = (1 << USBS0) | (3<<UCSZ00);
    _delay_ms(100);
}
void USART0_Transmit(unsigned char data ) {
    /* Wait for empty transmit buffer */ 
    while ( !( UCSR0A & (1<<UDRE0)) );
     fea:	5d 9b       	sbis	0x0b, 5	; 11
     fec:	fe cf       	rjmp	.-4      	; 0xfea <USART0_send_string+0xa>
    /* Put data into buffer, sends the data */ 
    UDR0 = data;
     fee:	9c b9       	out	0x0c, r25	; 12
}

void USART0_send_string(unsigned char *data){
    int i = 0;
    while (data[i] != '\0'){
     ff0:	91 91       	ld	r25, Z+
     ff2:	91 11       	cpse	r25, r1
     ff4:	fa cf       	rjmp	.-12     	; 0xfea <USART0_send_string+0xa>
     ff6:	08 95       	ret

00000ff8 <USART0_Receive>:
        USART0_Transmit(data[i]);
        ++i;
    }
}

unsigned char USART0_Receive(void){
     ff8:	80 e8       	ldi	r24, 0x80	; 128
     ffa:	9d e8       	ldi	r25, 0x8D	; 141
     ffc:	ab e5       	ldi	r26, 0x5B	; 91
     ffe:	b0 e0       	ldi	r27, 0x00	; 0
    1000:	04 c0       	rjmp	.+8      	; 0x100a <USART0_Receive+0x12>
    1002:	01 97       	sbiw	r24, 0x01	; 1
    1004:	a1 09       	sbc	r26, r1
    1006:	b1 09       	sbc	r27, r1
    do {
        if((UCSR0A & (1<<RXC0))){
            /* Get and return received data from buffer */ 
            return UDR0;
        }
    } while (--timeout);
    1008:	21 f0       	breq	.+8      	; 0x1012 <USART0_Receive+0x1a>

unsigned char USART0_Receive(void){
    unsigned long timeout = 6000000;    //This happens to be about 3 seconds
    /* Wait for data to be received or for timeout*/ 
    do {
        if((UCSR0A & (1<<RXC0))){
    100a:	5f 9b       	sbis	0x0b, 7	; 11
    100c:	fa cf       	rjmp	.-12     	; 0x1002 <USART0_Receive+0xa>
            /* Get and return received data from buffer */ 
            return UDR0;
    100e:	8c b1       	in	r24, 0x0c	; 12
    1010:	08 95       	ret
        }
    } while (--timeout);
    return 255;
    1012:	8f ef       	ldi	r24, 0xFF	; 255
    /********
    * This is the original
    ************/
    //while (!(UCSR0A & (1<<RXC0)));
    //return UDR0;
}
    1014:	08 95       	ret

00001016 <USART0_Receive_String>:

void USART0_Receive_String(unsigned char *str){
    1016:	dc 01       	movw	r26, r24
    1018:	fc 01       	movw	r30, r24
    101a:	9c 01       	movw	r18, r24
    101c:	2b 5f       	subi	r18, 0xFB	; 251
    101e:	3f 4f       	sbci	r19, 0xFF	; 255
    1020:	40 e8       	ldi	r20, 0x80	; 128
    1022:	5d e8       	ldi	r21, 0x8D	; 141
    1024:	6b e5       	ldi	r22, 0x5B	; 91
    1026:	70 e0       	ldi	r23, 0x00	; 0
    1028:	05 c0       	rjmp	.+10     	; 0x1034 <USART0_Receive_String+0x1e>
    102a:	41 50       	subi	r20, 0x01	; 1
    102c:	51 09       	sbc	r21, r1
    102e:	61 09       	sbc	r22, r1
    1030:	71 09       	sbc	r23, r1
    do {
        if((UCSR0A & (1<<RXC0))){
            /* Get and return received data from buffer */ 
            return UDR0;
        }
    } while (--timeout);
    1032:	61 f0       	breq	.+24     	; 0x104c <USART0_Receive_String+0x36>

unsigned char USART0_Receive(void){
    unsigned long timeout = 6000000;    //This happens to be about 3 seconds
    /* Wait for data to be received or for timeout*/ 
    do {
        if((UCSR0A & (1<<RXC0))){
    1034:	5f 9b       	sbis	0x0b, 7	; 11
    1036:	f9 cf       	rjmp	.-14     	; 0x102a <USART0_Receive_String+0x14>
            /* Get and return received data from buffer */ 
            return UDR0;
    1038:	9c b1       	in	r25, 0x0c	; 12

void USART0_Receive_String(unsigned char *str){
    int i = 0;
    unsigned char c;

    while ((c = (unsigned char)USART0_Receive()) != END_STRING){ //END_STRING == ~ or 0x7E
    103a:	9e 37       	cpi	r25, 0x7E	; 126
    103c:	b1 f0       	breq	.+44     	; 0x106a <USART0_Receive_String+0x54>
        if (c == 255 || i > MAX_STRING_SIZE - 1){
    103e:	9f 3f       	cpi	r25, 0xFF	; 255
    1040:	29 f0       	breq	.+10     	; 0x104c <USART0_Receive_String+0x36>
    1042:	e2 17       	cp	r30, r18
    1044:	f3 07       	cpc	r31, r19
    1046:	11 f0       	breq	.+4      	; 0x104c <USART0_Receive_String+0x36>
            str[2] = 50;
            str[3] = END_STRING;
            str[4] = '\0';
            return;
        }
        str[i] = c;
    1048:	91 93       	st	Z+, r25
    104a:	ea cf       	rjmp	.-44     	; 0x1020 <USART0_Receive_String+0xa>
    int i = 0;
    unsigned char c;

    while ((c = (unsigned char)USART0_Receive()) != END_STRING){ //END_STRING == ~ or 0x7E
        if (c == 255 || i > MAX_STRING_SIZE - 1){
            str[0] = 50;
    104c:	82 e3       	ldi	r24, 0x32	; 50
    104e:	8c 93       	st	X, r24
            str[1] = 50;
    1050:	11 96       	adiw	r26, 0x01	; 1
    1052:	8c 93       	st	X, r24
    1054:	11 97       	sbiw	r26, 0x01	; 1
            str[2] = 50;
    1056:	12 96       	adiw	r26, 0x02	; 2
    1058:	8c 93       	st	X, r24
    105a:	12 97       	sbiw	r26, 0x02	; 2
            str[3] = END_STRING;
    105c:	8e e7       	ldi	r24, 0x7E	; 126
    105e:	13 96       	adiw	r26, 0x03	; 3
    1060:	8c 93       	st	X, r24
    1062:	13 97       	sbiw	r26, 0x03	; 3
            str[4] = '\0';
    1064:	14 96       	adiw	r26, 0x04	; 4
    1066:	1c 92       	st	X, r1
            return;
    1068:	08 95       	ret
    106a:	08 95       	ret

0000106c <USART0_flush>:
    }
}

void USART0_flush(){
    unsigned char dummy;
    while (UCSR0A & (1 << RXC0)){
    106c:	5f 9b       	sbis	0x0b, 7	; 11
    106e:	03 c0       	rjmp	.+6      	; 0x1076 <USART0_flush+0xa>
        dummy = UDR0;
    1070:	8c b1       	in	r24, 0x0c	; 12
    }
}

void USART0_flush(){
    unsigned char dummy;
    while (UCSR0A & (1 << RXC0)){
    1072:	5f 99       	sbic	0x0b, 7	; 11
    1074:	fd cf       	rjmp	.-6      	; 0x1070 <USART0_flush+0x4>
    1076:	08 95       	ret

00001078 <init_esc>:
void init_motors(){
    init_esc();
    set_16bitPWM1();
}

void init_esc(){
    1078:	83 e0       	ldi	r24, 0x03	; 3
    107a:	90 e0       	ldi	r25, 0x00	; 0
    int i;
    for (i = 0; i < 3; ++i){
        PORTB |= (1 << 4);
    107c:	c4 9a       	sbi	0x18, 4	; 24
	#else
		//round up by default
		__ticks_dc = (uint32_t)(ceil(fabs(__tmp)));
	#endif

	__builtin_avr_delay_cycles(__ticks_dc);
    107e:	ef e6       	ldi	r30, 0x6F	; 111
    1080:	f7 e1       	ldi	r31, 0x17	; 23
    1082:	31 97       	sbiw	r30, 0x01	; 1
    1084:	f1 f7       	brne	.-4      	; 0x1082 <init_esc+0xa>
    1086:	00 c0       	rjmp	.+0      	; 0x1088 <init_esc+0x10>
    1088:	00 00       	nop
        _delay_us(STOP);
        PORTB &= ~(1 << 4);
    108a:	c4 98       	cbi	0x18, 4	; 24
	#else
		//round up by default
		__ticks_dc = (uint32_t)(ceil(fabs(__tmp)));
	#endif

	__builtin_avr_delay_cycles(__ticks_dc);
    108c:	ff ef       	ldi	r31, 0xFF	; 255
    108e:	23 ed       	ldi	r18, 0xD3	; 211
    1090:	30 e3       	ldi	r19, 0x30	; 48
    1092:	f1 50       	subi	r31, 0x01	; 1
    1094:	20 40       	sbci	r18, 0x00	; 0
    1096:	30 40       	sbci	r19, 0x00	; 0
    1098:	e1 f7       	brne	.-8      	; 0x1092 <init_esc+0x1a>
    109a:	00 c0       	rjmp	.+0      	; 0x109c <init_esc+0x24>
    109c:	00 00       	nop
    109e:	01 97       	sbiw	r24, 0x01	; 1
    set_16bitPWM1();
}

void init_esc(){
    int i;
    for (i = 0; i < 3; ++i){
    10a0:	69 f7       	brne	.-38     	; 0x107c <init_esc+0x4>
        PORTB |= (1 << 4);
        _delay_us(STOP);
        PORTB &= ~(1 << 4);
        _delay_ms(1000);
    }
}
    10a2:	08 95       	ret

000010a4 <set_16bitPWM1>:

void set_16bitPWM1(){
    //16-bit fast pwm non-inverting on PB5
    TCCR1A |= (1 << COM1A1); //inverting
    10a4:	8f b5       	in	r24, 0x2f	; 47
    10a6:	80 68       	ori	r24, 0x80	; 128
    10a8:	8f bd       	out	0x2f, r24	; 47

    //16-bit fast pwm non-inverting on PB6
    TCCR1A |= (1 << COM1B1); //non-inverting
    10aa:	8f b5       	in	r24, 0x2f	; 47
    10ac:	80 62       	ori	r24, 0x20	; 32
    10ae:	8f bd       	out	0x2f, r24	; 47

    //16-bit fast pwm non-inverting on PB7
    TCCR1A |= (1 << COM1C1); //non-inverting
    10b0:	8f b5       	in	r24, 0x2f	; 47
    10b2:	88 60       	ori	r24, 0x08	; 8
    10b4:	8f bd       	out	0x2f, r24	; 47

    //Fast PWM w/ TOP ICR1
    TCCR1A |= (1 << WGM11); 
    10b6:	8f b5       	in	r24, 0x2f	; 47
    10b8:	82 60       	ori	r24, 0x02	; 2
    10ba:	8f bd       	out	0x2f, r24	; 47
    TCCR1B |= (1 << WGM13) | (1 << WGM12);
    10bc:	8e b5       	in	r24, 0x2e	; 46
    10be:	88 61       	ori	r24, 0x18	; 24
    10c0:	8e bd       	out	0x2e, r24	; 46
    switch (PRESCALER){
        case 1:
            TCCR1B |= (1 << CS10); //244.140625 Hz
            break;
        case 8:
            TCCR1B |= (1 << CS11); //30.517578 Hz
    10c2:	8e b5       	in	r24, 0x2e	; 46
    10c4:	82 60       	ori	r24, 0x02	; 2
    10c6:	8e bd       	out	0x2e, r24	; 46
}

void TIM16_WriteTCNT1( unsigned int i ) {
    unsigned char sreg;
    /* Save global interrupt flag */ 
    sreg = SREG;
    10c8:	8f b7       	in	r24, 0x3f	; 63
    /* Disable interrupts */ 
    cli();
    10ca:	f8 94       	cli
    /* Set TCNTn to i */
    TCNT1 = i;
    10cc:	21 e0       	ldi	r18, 0x01	; 1
    10ce:	30 e0       	ldi	r19, 0x00	; 0
    10d0:	3d bd       	out	0x2d, r19	; 45
    10d2:	2c bd       	out	0x2c, r18	; 44
    sei();
    10d4:	78 94       	sei
    /* Restore global interrupt flag */ 
    SREG = sreg;
    10d6:	8f bf       	out	0x3f, r24	; 63
            break;
    }
    

    TIM16_WriteTCNT1(1);
    ICR1 = (unsigned int) 65535;
    10d8:	8f ef       	ldi	r24, 0xFF	; 255
    10da:	9f ef       	ldi	r25, 0xFF	; 255
    10dc:	97 bd       	out	0x27, r25	; 39
    10de:	86 bd       	out	0x26, r24	; 38
    10e0:	2f ef       	ldi	r18, 0xFF	; 255
    10e2:	81 ee       	ldi	r24, 0xE1	; 225
    10e4:	94 e0       	ldi	r25, 0x04	; 4
    10e6:	21 50       	subi	r18, 0x01	; 1
    10e8:	80 40       	sbci	r24, 0x00	; 0
    10ea:	90 40       	sbci	r25, 0x00	; 0
    10ec:	e1 f7       	brne	.-8      	; 0x10e6 <set_16bitPWM1+0x42>
    10ee:	00 c0       	rjmp	.+0      	; 0x10f0 <set_16bitPWM1+0x4c>
    10f0:	00 00       	nop
    10f2:	08 95       	ret

000010f4 <init_motors>:
#include "motors.h"

void init_motors(){
    10f4:	83 e0       	ldi	r24, 0x03	; 3
    10f6:	90 e0       	ldi	r25, 0x00	; 0
}

void init_esc(){
    int i;
    for (i = 0; i < 3; ++i){
        PORTB |= (1 << 4);
    10f8:	c4 9a       	sbi	0x18, 4	; 24
	#else
		//round up by default
		__ticks_dc = (uint32_t)(ceil(fabs(__tmp)));
	#endif

	__builtin_avr_delay_cycles(__ticks_dc);
    10fa:	ef e6       	ldi	r30, 0x6F	; 111
    10fc:	f7 e1       	ldi	r31, 0x17	; 23
    10fe:	31 97       	sbiw	r30, 0x01	; 1
    1100:	f1 f7       	brne	.-4      	; 0x10fe <init_motors+0xa>
    1102:	00 c0       	rjmp	.+0      	; 0x1104 <__stack+0x5>
    1104:	00 00       	nop
        _delay_us(STOP);
        PORTB &= ~(1 << 4);
    1106:	c4 98       	cbi	0x18, 4	; 24
	#else
		//round up by default
		__ticks_dc = (uint32_t)(ceil(fabs(__tmp)));
	#endif

	__builtin_avr_delay_cycles(__ticks_dc);
    1108:	ff ef       	ldi	r31, 0xFF	; 255
    110a:	23 ed       	ldi	r18, 0xD3	; 211
    110c:	30 e3       	ldi	r19, 0x30	; 48
    110e:	f1 50       	subi	r31, 0x01	; 1
    1110:	20 40       	sbci	r18, 0x00	; 0
    1112:	30 40       	sbci	r19, 0x00	; 0
    1114:	e1 f7       	brne	.-8      	; 0x110e <__stack+0xf>
    1116:	00 c0       	rjmp	.+0      	; 0x1118 <__stack+0x19>
    1118:	00 00       	nop
    111a:	01 97       	sbiw	r24, 0x01	; 1
    set_16bitPWM1();
}

void init_esc(){
    int i;
    for (i = 0; i < 3; ++i){
    111c:	69 f7       	brne	.-38     	; 0x10f8 <init_motors+0x4>
#include "motors.h"

void init_motors(){
    init_esc();
    set_16bitPWM1();
    111e:	0c 94 52 08 	jmp	0x10a4	; 0x10a4 <set_16bitPWM1>

00001122 <TIM16_WriteTCNT1>:
    TIM16_WriteTCNT1(1);
    ICR1 = (unsigned int) 65535;
    _delay_ms(100);
}

void TIM16_WriteTCNT1( unsigned int i ) {
    1122:	9c 01       	movw	r18, r24
    unsigned char sreg;
    /* Save global interrupt flag */ 
    sreg = SREG;
    1124:	9f b7       	in	r25, 0x3f	; 63
    /* Disable interrupts */ 
    cli();
    1126:	f8 94       	cli
    /* Set TCNTn to i */
    TCNT1 = i;
    1128:	3d bd       	out	0x2d, r19	; 45
    112a:	2c bd       	out	0x2c, r18	; 44
    sei();
    112c:	78 94       	sei
    /* Restore global interrupt flag */ 
    SREG = sreg;
    112e:	9f bf       	out	0x3f, r25	; 63
    1130:	08 95       	ret

00001132 <move>:
    OCR1B = Right motor PB6
    maybe OCR1C = Z motor? PB7

    NOTE: Does not activate AfroESC with Simonk firmware given less than 6
*/
void move(float left, float right, float z){
    1132:	4f 92       	push	r4
    1134:	5f 92       	push	r5
    1136:	6f 92       	push	r6
    1138:	7f 92       	push	r7
    113a:	8f 92       	push	r8
    113c:	9f 92       	push	r9
    113e:	af 92       	push	r10
    1140:	bf 92       	push	r11
    1142:	cf 92       	push	r12
    1144:	df 92       	push	r13
    1146:	ef 92       	push	r14
    1148:	ff 92       	push	r15
    114a:	0f 93       	push	r16
    114c:	1f 93       	push	r17
    114e:	cf 93       	push	r28
    1150:	df 93       	push	r29
    1152:	2b 01       	movw	r4, r22
    1154:	3c 01       	movw	r6, r24
    1156:	49 01       	movw	r8, r18
    1158:	5a 01       	movw	r10, r20
    115a:	67 01       	movw	r12, r14
    115c:	78 01       	movw	r14, r16
    
    if (left < (MIN_INPUT + SATURATE_DIFFERENCE)){
    115e:	20 e0       	ldi	r18, 0x00	; 0
    1160:	30 e0       	ldi	r19, 0x00	; 0
    1162:	40 ef       	ldi	r20, 0xF0	; 240
    1164:	51 e4       	ldi	r21, 0x41	; 65
    1166:	0e 94 21 0c 	call	0x1842	; 0x1842 <__cmpsf2>
    116a:	87 fd       	sbrc	r24, 7
    116c:	64 c0       	rjmp	.+200    	; 0x1236 <move+0x104>
        left = MIN_INPUT + SATURATE_DIFFERENCE;
    }
    if (left > (MAX_INPUT - SATURATE_DIFFERENCE)){
    116e:	20 e0       	ldi	r18, 0x00	; 0
    1170:	30 e0       	ldi	r19, 0x00	; 0
    1172:	4c e8       	ldi	r20, 0x8C	; 140
    1174:	52 e4       	ldi	r21, 0x42	; 66
    1176:	c3 01       	movw	r24, r6
    1178:	b2 01       	movw	r22, r4
    117a:	0e 94 a7 0d 	call	0x1b4e	; 0x1b4e <__gesf2>
    117e:	18 16       	cp	r1, r24
    1180:	0c f0       	brlt	.+2      	; 0x1184 <move+0x52>
    1182:	67 c0       	rjmp	.+206    	; 0x1252 <move+0x120>
    1184:	08 ef       	ldi	r16, 0xF8	; 248
    1186:	1c e0       	ldi	r17, 0x0C	; 12
        left = MAX_INPUT - SATURATE_DIFFERENCE;
    }
    if (right < (MIN_INPUT + SATURATE_DIFFERENCE)){
    1188:	20 e0       	ldi	r18, 0x00	; 0
    118a:	30 e0       	ldi	r19, 0x00	; 0
    118c:	40 ef       	ldi	r20, 0xF0	; 240
    118e:	51 e4       	ldi	r21, 0x41	; 65
    1190:	c5 01       	movw	r24, r10
    1192:	b4 01       	movw	r22, r8
    1194:	0e 94 21 0c 	call	0x1842	; 0x1842 <__cmpsf2>
    1198:	87 fd       	sbrc	r24, 7
    119a:	58 c0       	rjmp	.+176    	; 0x124c <move+0x11a>
        right = MIN_INPUT + SATURATE_DIFFERENCE;
    }
    if (right > (MAX_INPUT - SATURATE_DIFFERENCE)){
    119c:	20 e0       	ldi	r18, 0x00	; 0
    119e:	30 e0       	ldi	r19, 0x00	; 0
    11a0:	4c e8       	ldi	r20, 0x8C	; 140
    11a2:	52 e4       	ldi	r21, 0x42	; 66
    11a4:	c5 01       	movw	r24, r10
    11a6:	b4 01       	movw	r22, r8
    11a8:	0e 94 a7 0d 	call	0x1b4e	; 0x1b4e <__gesf2>
    11ac:	18 16       	cp	r1, r24
    11ae:	0c f0       	brlt	.+2      	; 0x11b2 <move+0x80>
    11b0:	6d c0       	rjmp	.+218    	; 0x128c <move+0x15a>
    11b2:	c8 ef       	ldi	r28, 0xF8	; 248
    11b4:	dc e0       	ldi	r29, 0x0C	; 12
        right = MAX_INPUT - SATURATE_DIFFERENCE;
    }
    if (z < (MIN_INPUT + SATURATE_DIFFERENCE)){
    11b6:	20 e0       	ldi	r18, 0x00	; 0
    11b8:	30 e0       	ldi	r19, 0x00	; 0
    11ba:	40 ef       	ldi	r20, 0xF0	; 240
    11bc:	51 e4       	ldi	r21, 0x41	; 65
    11be:	c7 01       	movw	r24, r14
    11c0:	b6 01       	movw	r22, r12
    11c2:	0e 94 21 0c 	call	0x1842	; 0x1842 <__cmpsf2>
    11c6:	87 fd       	sbrc	r24, 7
    11c8:	39 c0       	rjmp	.+114    	; 0x123c <move+0x10a>
        z = MIN_INPUT + SATURATE_DIFFERENCE;
    }
    if (z > (MAX_INPUT - SATURATE_DIFFERENCE)){
    11ca:	20 e0       	ldi	r18, 0x00	; 0
    11cc:	30 e0       	ldi	r19, 0x00	; 0
    11ce:	4c e8       	ldi	r20, 0x8C	; 140
    11d0:	52 e4       	ldi	r21, 0x42	; 66
    11d2:	c7 01       	movw	r24, r14
    11d4:	b6 01       	movw	r22, r12
    11d6:	0e 94 a7 0d 	call	0x1b4e	; 0x1b4e <__gesf2>
    11da:	18 16       	cp	r1, r24
    11dc:	0c f0       	brlt	.+2      	; 0x11e0 <move+0xae>
    11de:	4b c0       	rjmp	.+150    	; 0x1276 <move+0x144>
    11e0:	83 e3       	ldi	r24, 0x33	; 51
    11e2:	c8 2e       	mov	r12, r24
    11e4:	dc 2c       	mov	r13, r12
    11e6:	ec 2c       	mov	r14, r12
    11e8:	8f e3       	ldi	r24, 0x3F	; 63
    11ea:	f8 2e       	mov	r15, r24

    unsigned int left_speed, right_speed, z_speed;
    left_speed = (unsigned int)((left - MIN_INPUT)/((double)STEP) + MIN_SPEED);
    right_speed = (unsigned int)((right - MIN_INPUT)/((double)STEP) + MIN_SPEED);
    //This needs to be redone to account for a different speed controller
    z_speed = (unsigned int)(ICR1 * (z/((double)MAX_INPUT))); 
    11ec:	66 b5       	in	r22, 0x26	; 38
    11ee:	77 b5       	in	r23, 0x27	; 39
    11f0:	80 e0       	ldi	r24, 0x00	; 0
    11f2:	90 e0       	ldi	r25, 0x00	; 0
    11f4:	0e 94 ce 0c 	call	0x199c	; 0x199c <__floatunsisf>
    11f8:	a7 01       	movw	r20, r14
    11fa:	96 01       	movw	r18, r12
    11fc:	0e 94 b4 0d 	call	0x1b68	; 0x1b68 <__mulsf3>
    1200:	0e 94 9f 0c 	call	0x193e	; 0x193e <__fixunssfsi>
    OCR1A = left_speed;
    1204:	1b bd       	out	0x2b, r17	; 43
    1206:	0a bd       	out	0x2a, r16	; 42
    OCR1B = right_speed;
    1208:	d9 bd       	out	0x29, r29	; 41
    120a:	c8 bd       	out	0x28, r28	; 40
    OCR1C = z_speed;
    120c:	70 93 79 00 	sts	0x0079, r23
    1210:	60 93 78 00 	sts	0x0078, r22

}
    1214:	df 91       	pop	r29
    1216:	cf 91       	pop	r28
    1218:	1f 91       	pop	r17
    121a:	0f 91       	pop	r16
    121c:	ff 90       	pop	r15
    121e:	ef 90       	pop	r14
    1220:	df 90       	pop	r13
    1222:	cf 90       	pop	r12
    1224:	bf 90       	pop	r11
    1226:	af 90       	pop	r10
    1228:	9f 90       	pop	r9
    122a:	8f 90       	pop	r8
    122c:	7f 90       	pop	r7
    122e:	6f 90       	pop	r6
    1230:	5f 90       	pop	r5
    1232:	4f 90       	pop	r4
    1234:	08 95       	ret
    1236:	08 e7       	ldi	r16, 0x78	; 120
    1238:	1a e0       	ldi	r17, 0x0A	; 10
    123a:	a6 cf       	rjmp	.-180    	; 0x1188 <move+0x56>
    123c:	9a e9       	ldi	r25, 0x9A	; 154
    123e:	c9 2e       	mov	r12, r25
    1240:	99 e9       	ldi	r25, 0x99	; 153
    1242:	d9 2e       	mov	r13, r25
    1244:	ed 2c       	mov	r14, r13
    1246:	9e e3       	ldi	r25, 0x3E	; 62
    1248:	f9 2e       	mov	r15, r25
    124a:	d0 cf       	rjmp	.-96     	; 0x11ec <move+0xba>
    124c:	c8 e7       	ldi	r28, 0x78	; 120
    124e:	da e0       	ldi	r29, 0x0A	; 10
    1250:	b2 cf       	rjmp	.-156    	; 0x11b6 <move+0x84>
    1252:	20 e0       	ldi	r18, 0x00	; 0
    1254:	30 e0       	ldi	r19, 0x00	; 0
    1256:	40 e8       	ldi	r20, 0x80	; 128
    1258:	51 e4       	ldi	r21, 0x41	; 65
    125a:	c3 01       	movw	r24, r6
    125c:	b2 01       	movw	r22, r4
    125e:	0e 94 b4 0d 	call	0x1b68	; 0x1b68 <__mulsf3>
    1262:	20 e0       	ldi	r18, 0x00	; 0
    1264:	30 e8       	ldi	r19, 0x80	; 128
    1266:	49 e0       	ldi	r20, 0x09	; 9
    1268:	55 e4       	ldi	r21, 0x45	; 69
    126a:	0e 94 43 0b 	call	0x1686	; 0x1686 <__addsf3>
    126e:	0e 94 9f 0c 	call	0x193e	; 0x193e <__fixunssfsi>
    1272:	8b 01       	movw	r16, r22
    1274:	89 cf       	rjmp	.-238    	; 0x1188 <move+0x56>
    1276:	20 e0       	ldi	r18, 0x00	; 0
    1278:	30 e0       	ldi	r19, 0x00	; 0
    127a:	48 ec       	ldi	r20, 0xC8	; 200
    127c:	52 e4       	ldi	r21, 0x42	; 66
    127e:	c7 01       	movw	r24, r14
    1280:	b6 01       	movw	r22, r12
    1282:	0e 94 26 0c 	call	0x184c	; 0x184c <__divsf3>
    1286:	6b 01       	movw	r12, r22
    1288:	7c 01       	movw	r14, r24
    128a:	b0 cf       	rjmp	.-160    	; 0x11ec <move+0xba>
    128c:	20 e0       	ldi	r18, 0x00	; 0
    128e:	30 e0       	ldi	r19, 0x00	; 0
    1290:	40 e8       	ldi	r20, 0x80	; 128
    1292:	51 e4       	ldi	r21, 0x41	; 65
    1294:	c5 01       	movw	r24, r10
    1296:	b4 01       	movw	r22, r8
    1298:	0e 94 b4 0d 	call	0x1b68	; 0x1b68 <__mulsf3>
    129c:	20 e0       	ldi	r18, 0x00	; 0
    129e:	30 e8       	ldi	r19, 0x80	; 128
    12a0:	49 e0       	ldi	r20, 0x09	; 9
    12a2:	55 e4       	ldi	r21, 0x45	; 69
    12a4:	0e 94 43 0b 	call	0x1686	; 0x1686 <__addsf3>
    12a8:	0e 94 9f 0c 	call	0x193e	; 0x193e <__fixunssfsi>
    12ac:	eb 01       	movw	r28, r22
    12ae:	83 cf       	rjmp	.-250    	; 0x11b6 <move+0x84>

000012b0 <init_HMC5883L>:
#include "magnometer.h"

void init_HMC5883L(void){

    i2c_start(HMC5883L_WRITE);
    12b0:	8c e3       	ldi	r24, 0x3C	; 60
    12b2:	0e 94 c4 04 	call	0x988	; 0x988 <i2c_start>
    i2c_write(0x00); // set pointer to CRA
    12b6:	80 e0       	ldi	r24, 0x00	; 0
    12b8:	0e 94 e6 04 	call	0x9cc	; 0x9cc <i2c_write>
    i2c_write(0x70); // write 0x70 to CRA
    12bc:	80 e7       	ldi	r24, 0x70	; 112
    12be:	0e 94 e6 04 	call	0x9cc	; 0x9cc <i2c_write>
    i2c_stop();
    12c2:	0e 94 03 06 	call	0xc06	; 0xc06 <i2c_stop>

    i2c_start(HMC5883L_WRITE);
    12c6:	8c e3       	ldi	r24, 0x3C	; 60
    12c8:	0e 94 c4 04 	call	0x988	; 0x988 <i2c_start>
    i2c_write(0x01); // set pointer to CRB
    12cc:	81 e0       	ldi	r24, 0x01	; 1
    12ce:	0e 94 e6 04 	call	0x9cc	; 0x9cc <i2c_write>
    i2c_write(0xA0);
    12d2:	80 ea       	ldi	r24, 0xA0	; 160
    12d4:	0e 94 e6 04 	call	0x9cc	; 0x9cc <i2c_write>
    i2c_stop();
    12d8:	0e 94 03 06 	call	0xc06	; 0xc06 <i2c_stop>

    i2c_start(HMC5883L_WRITE);
    12dc:	8c e3       	ldi	r24, 0x3C	; 60
    12de:	0e 94 c4 04 	call	0x988	; 0x988 <i2c_start>
    i2c_write(0x02); // set pointer to measurement mode
    12e2:	82 e0       	ldi	r24, 0x02	; 2
    12e4:	0e 94 e6 04 	call	0x9cc	; 0x9cc <i2c_write>
    i2c_write(0x00); // continous measurement
    12e8:	80 e0       	ldi	r24, 0x00	; 0
    12ea:	0e 94 e6 04 	call	0x9cc	; 0x9cc <i2c_write>
    i2c_stop();
    12ee:	0c 94 03 06 	jmp	0xc06	; 0xc06 <i2c_stop>

000012f2 <getHeading>:
}
float getHeading(int16_t *x, int16_t *y, int16_t *z){
    12f2:	cf 92       	push	r12
    12f4:	df 92       	push	r13
    12f6:	ef 92       	push	r14
    12f8:	ff 92       	push	r15
    12fa:	0f 93       	push	r16
    12fc:	1f 93       	push	r17
    12fe:	cf 93       	push	r28
    1300:	df 93       	push	r29
    1302:	8c 01       	movw	r16, r24
    1304:	eb 01       	movw	r28, r22
    1306:	7a 01       	movw	r14, r20

    float headingDegrees;
    
    i2c_start(HMC5883L_WRITE);
    1308:	8c e3       	ldi	r24, 0x3C	; 60
    130a:	0e 94 c4 04 	call	0x988	; 0x988 <i2c_start>
    i2c_write(0x03); // set pointer to X axis MSB
    130e:	83 e0       	ldi	r24, 0x03	; 3
    1310:	0e 94 e6 04 	call	0x9cc	; 0x9cc <i2c_write>
    i2c_stop();
    1314:	0e 94 03 06 	call	0xc06	; 0xc06 <i2c_stop>

    i2c_start(HMC5883L_READ);
    1318:	8d e3       	ldi	r24, 0x3D	; 61
    131a:	0e 94 c4 04 	call	0x988	; 0x988 <i2c_start>

    *x = ((uint8_t)i2c_read_ack())<<8;
    131e:	0e 94 f8 04 	call	0x9f0	; 0x9f0 <i2c_read_ack>
    1322:	f8 01       	movw	r30, r16
    1324:	10 82       	st	Z, r1
    1326:	81 83       	std	Z+1, r24	; 0x01
    *x |= i2c_read_ack();
    1328:	0e 94 f8 04 	call	0x9f0	; 0x9f0 <i2c_read_ack>
    132c:	f8 01       	movw	r30, r16
    132e:	20 81       	ld	r18, Z
    1330:	31 81       	ldd	r19, Z+1	; 0x01
    1332:	28 2b       	or	r18, r24
    1334:	31 83       	std	Z+1, r19	; 0x01
    1336:	20 83       	st	Z, r18

    *z = ((uint8_t)i2c_read_ack())<<8;
    1338:	0e 94 f8 04 	call	0x9f0	; 0x9f0 <i2c_read_ack>
    133c:	f7 01       	movw	r30, r14
    133e:	10 82       	st	Z, r1
    1340:	81 83       	std	Z+1, r24	; 0x01
    *z |= i2c_read_ack();
    1342:	0e 94 f8 04 	call	0x9f0	; 0x9f0 <i2c_read_ack>
    1346:	f7 01       	movw	r30, r14
    1348:	20 81       	ld	r18, Z
    134a:	31 81       	ldd	r19, Z+1	; 0x01
    134c:	28 2b       	or	r18, r24
    134e:	31 83       	std	Z+1, r19	; 0x01
    1350:	20 83       	st	Z, r18

    *y = ((uint8_t)i2c_read_ack())<<8;
    1352:	0e 94 f8 04 	call	0x9f0	; 0x9f0 <i2c_read_ack>
    1356:	18 82       	st	Y, r1
    1358:	89 83       	std	Y+1, r24	; 0x01
    *y |= i2c_read_nack();
    135a:	0e 94 02 05 	call	0xa04	; 0xa04 <i2c_read_nack>
    135e:	28 81       	ld	r18, Y
    1360:	39 81       	ldd	r19, Y+1	; 0x01
    1362:	28 2b       	or	r18, r24
    1364:	39 83       	std	Y+1, r19	; 0x01
    1366:	28 83       	st	Y, r18

    i2c_stop();
    1368:	0e 94 03 06 	call	0xc06	; 0xc06 <i2c_stop>

    headingDegrees = atan2((double)*y,(double)*x) * 180 / 3.141592654 + 180;
    136c:	f8 01       	movw	r30, r16
    136e:	60 81       	ld	r22, Z
    1370:	71 81       	ldd	r23, Z+1	; 0x01
    1372:	07 2e       	mov	r0, r23
    1374:	00 0c       	add	r0, r0
    1376:	88 0b       	sbc	r24, r24
    1378:	99 0b       	sbc	r25, r25
    137a:	0e 94 d0 0c 	call	0x19a0	; 0x19a0 <__floatsisf>
    137e:	6b 01       	movw	r12, r22
    1380:	7c 01       	movw	r14, r24
    1382:	68 81       	ld	r22, Y
    1384:	79 81       	ldd	r23, Y+1	; 0x01
    1386:	07 2e       	mov	r0, r23
    1388:	00 0c       	add	r0, r0
    138a:	88 0b       	sbc	r24, r24
    138c:	99 0b       	sbc	r25, r25
    138e:	0e 94 d0 0c 	call	0x19a0	; 0x19a0 <__floatsisf>
    1392:	a7 01       	movw	r20, r14
    1394:	96 01       	movw	r18, r12
    1396:	0e 94 c2 0b 	call	0x1784	; 0x1784 <atan2>
    139a:	20 e0       	ldi	r18, 0x00	; 0
    139c:	30 e0       	ldi	r19, 0x00	; 0
    139e:	44 e3       	ldi	r20, 0x34	; 52
    13a0:	53 e4       	ldi	r21, 0x43	; 67
    13a2:	0e 94 b4 0d 	call	0x1b68	; 0x1b68 <__mulsf3>
    13a6:	2b ed       	ldi	r18, 0xDB	; 219
    13a8:	3f e0       	ldi	r19, 0x0F	; 15
    13aa:	49 e4       	ldi	r20, 0x49	; 73
    13ac:	50 e4       	ldi	r21, 0x40	; 64
    13ae:	0e 94 26 0c 	call	0x184c	; 0x184c <__divsf3>
    13b2:	20 e0       	ldi	r18, 0x00	; 0
    13b4:	30 e0       	ldi	r19, 0x00	; 0
    13b6:	44 e3       	ldi	r20, 0x34	; 52
    13b8:	53 e4       	ldi	r21, 0x43	; 67
    13ba:	0e 94 43 0b 	call	0x1686	; 0x1686 <__addsf3>

    return headingDegrees;
}
    13be:	df 91       	pop	r29
    13c0:	cf 91       	pop	r28
    13c2:	1f 91       	pop	r17
    13c4:	0f 91       	pop	r16
    13c6:	ff 90       	pop	r15
    13c8:	ef 90       	pop	r14
    13ca:	df 90       	pop	r13
    13cc:	cf 90       	pop	r12
    13ce:	08 95       	ret

000013d0 <get_distance>:
    13d0:	60 e0       	ldi	r22, 0x00	; 0
    13d2:	70 e0       	ldi	r23, 0x00	; 0
    13d4:	cb 01       	movw	r24, r22
    13d6:	08 95       	ret

000013d8 <print_distance>:
    return 0;
}

double print_distance(unsigned int pin){
    return 0;
}
    13d8:	60 e0       	ldi	r22, 0x00	; 0
    13da:	70 e0       	ldi	r23, 0x00	; 0
    13dc:	cb 01       	movw	r24, r22
    13de:	08 95       	ret

000013e0 <enable_laser_sensor>:
void enable_laser_sensor(){
    //disable analog comparator interrupt, clear ACSR:ACIE
    ACSR &= ~(1 << ACIE);
    13e0:	43 98       	cbi	0x08, 3	; 8

    //enable analog comparator multiplexer, set SFIOR:ACME
    SFIOR |= (1 << ACME);
    13e2:	80 b5       	in	r24, 0x20	; 32
    13e4:	88 60       	ori	r24, 0x08	; 8
    13e6:	80 bd       	out	0x20, r24	; 32

    //set AIN1 to laser sensor pin
    ADMUX &= 0b11111000; //clear the admux input pin bits
    13e8:	87 b1       	in	r24, 0x07	; 7
    13ea:	88 7f       	andi	r24, 0xF8	; 248
    13ec:	87 b9       	out	0x07, r24	; 7
    ADMUX |= LASER_SENSOR;  //set the new bits
    13ee:	38 9a       	sbi	0x07, 0	; 7
    
    //enable analog comparator, clear ACSR:ACD
    ACSR &= ~(1 << ACD);
    13f0:	47 98       	cbi	0x08, 7	; 8
    
    //set comparator interrupt on rising output edge, set ACSR:ACIS1, set ACSR:ACIS0
    ACSR |= (1 << ACIS1) | (1 << ACIS0);
    13f2:	88 b1       	in	r24, 0x08	; 8
    13f4:	83 60       	ori	r24, 0x03	; 3
    13f6:	88 b9       	out	0x08, r24	; 8
    
    //enable analog comparator interrupt, set ACSR:ACIE
    ACSR |= (1 << ACIE);
    13f8:	43 9a       	sbi	0x08, 3	; 8
    13fa:	08 95       	ret

000013fc <disable_laser_sensor>:
    
    //Be sure to handle the interrupt until ACSR:ACO goes low
}
void disable_laser_sensor(){
    //disable analog comparator interrupt, clear ACSR:ACIE
    ACSR &= ~(1 << ACIE);
    13fc:	43 98       	cbi	0x08, 3	; 8

    //disable analog comparator, set ACSR:ACD
    ACSR |= (1 << ACD);
    13fe:	47 9a       	sbi	0x08, 7	; 8

    //disable analog comparator multiplexor, clear SFIOR:ACME
    SFIOR &= ~(1 << ACME);
    1400:	80 b5       	in	r24, 0x20	; 32
    1402:	87 7f       	andi	r24, 0xF7	; 247
    1404:	80 bd       	out	0x20, r24	; 32
    1406:	08 95       	ret

00001408 <laser_off>:
}

void laser_off(){
    PORTB |= (1 << LASER);
    1408:	c0 9a       	sbi	0x18, 0	; 24
    140a:	08 95       	ret

0000140c <laser_on>:
}
void laser_on(){
    PORTB &= ~(1 << LASER);
    140c:	c0 98       	cbi	0x18, 0	; 24
    140e:	08 95       	ret

00001410 <calibrate_pressure_sensor>:
#define	PRESSURESENSOR_C

#include "pressuresensor.h"

void calibrate_pressure_sensor(){
	PSENSOR_MIN = get_voltage(PSENSOR_PIN);;
    1410:	80 e0       	ldi	r24, 0x00	; 0
    1412:	90 e0       	ldi	r25, 0x00	; 0
    1414:	0e 94 39 06 	call	0xc72	; 0xc72 <get_voltage>
    1418:	60 93 b0 02 	sts	0x02B0, r22
    141c:	70 93 b1 02 	sts	0x02B1, r23
    1420:	80 93 b2 02 	sts	0x02B2, r24
    1424:	90 93 b3 02 	sts	0x02B3, r25
    1428:	08 95       	ret

0000142a <get_depth_mpa>:
}

double get_depth_mpa(){
    142a:	8f 92       	push	r8
    142c:	9f 92       	push	r9
    142e:	af 92       	push	r10
    1430:	bf 92       	push	r11
    1432:	cf 92       	push	r12
    1434:	df 92       	push	r13
    1436:	ef 92       	push	r14
    1438:	ff 92       	push	r15
	return 1.2 * (get_voltage(PSENSOR_PIN) - PSENSOR_MIN)/(4.5-PSENSOR_MIN);
    143a:	80 e0       	ldi	r24, 0x00	; 0
    143c:	90 e0       	ldi	r25, 0x00	; 0
    143e:	0e 94 39 06 	call	0xc72	; 0xc72 <get_voltage>
    1442:	20 91 b0 02 	lds	r18, 0x02B0
    1446:	30 91 b1 02 	lds	r19, 0x02B1
    144a:	40 91 b2 02 	lds	r20, 0x02B2
    144e:	50 91 b3 02 	lds	r21, 0x02B3
    1452:	80 90 b0 02 	lds	r8, 0x02B0
    1456:	90 90 b1 02 	lds	r9, 0x02B1
    145a:	a0 90 b2 02 	lds	r10, 0x02B2
    145e:	b0 90 b3 02 	lds	r11, 0x02B3
    1462:	0e 94 42 0b 	call	0x1684	; 0x1684 <__subsf3>
    1466:	2a e9       	ldi	r18, 0x9A	; 154
    1468:	39 e9       	ldi	r19, 0x99	; 153
    146a:	49 e9       	ldi	r20, 0x99	; 153
    146c:	5f e3       	ldi	r21, 0x3F	; 63
    146e:	0e 94 b4 0d 	call	0x1b68	; 0x1b68 <__mulsf3>
    1472:	6b 01       	movw	r12, r22
    1474:	7c 01       	movw	r14, r24
    1476:	a5 01       	movw	r20, r10
    1478:	94 01       	movw	r18, r8
    147a:	60 e0       	ldi	r22, 0x00	; 0
    147c:	70 e0       	ldi	r23, 0x00	; 0
    147e:	80 e9       	ldi	r24, 0x90	; 144
    1480:	90 e4       	ldi	r25, 0x40	; 64
    1482:	0e 94 42 0b 	call	0x1684	; 0x1684 <__subsf3>
    1486:	9b 01       	movw	r18, r22
    1488:	ac 01       	movw	r20, r24
    148a:	c7 01       	movw	r24, r14
    148c:	b6 01       	movw	r22, r12
    148e:	0e 94 26 0c 	call	0x184c	; 0x184c <__divsf3>
}
    1492:	ff 90       	pop	r15
    1494:	ef 90       	pop	r14
    1496:	df 90       	pop	r13
    1498:	cf 90       	pop	r12
    149a:	bf 90       	pop	r11
    149c:	af 90       	pop	r10
    149e:	9f 90       	pop	r9
    14a0:	8f 90       	pop	r8
    14a2:	08 95       	ret

000014a4 <get_depth_feet>:
    14a4:	0e 94 15 0a 	call	0x142a	; 0x142a <get_depth_mpa>
    14a8:	29 ef       	ldi	r18, 0xF9	; 249
    14aa:	37 e4       	ldi	r19, 0x47	; 71
    14ac:	47 ea       	ldi	r20, 0xA7	; 167
    14ae:	53 e4       	ldi	r21, 0x43	; 67
    14b0:	0e 94 b4 0d 	call	0x1b68	; 0x1b68 <__mulsf3>
    14b4:	08 95       	ret

000014b6 <main>:

char buffer[10];
volatile int object_detected = 0;


int main(){
    14b6:	cf 93       	push	r28
    14b8:	df 93       	push	r29
    14ba:	00 d0       	rcall	.+0      	; 0x14bc <main+0x6>
    14bc:	00 d0       	rcall	.+0      	; 0x14be <main+0x8>
    14be:	1f 92       	push	r1
    14c0:	cd b7       	in	r28, 0x3d	; 61
    14c2:	de b7       	in	r29, 0x3e	; 62
    DDRB = 0xFF;
    14c4:	8f ef       	ldi	r24, 0xFF	; 255
    14c6:	87 bb       	out	0x17, r24	; 23
    PORTB = 0;
    14c8:	18 ba       	out	0x18, r1	; 24
    USART0_Init(MYUBRR);
    14ca:	87 e6       	ldi	r24, 0x67	; 103
    14cc:	90 e0       	ldi	r25, 0x00	; 0
    14ce:	0e 94 da 07 	call	0xfb4	; 0xfb4 <USART0_Init>
    USART0_send_string((unsigned char *)"USART0 (RS232) Initialized\r\n");
    14d2:	82 ed       	ldi	r24, 0xD2	; 210
    14d4:	91 e0       	ldi	r25, 0x01	; 1
    14d6:	0e 94 f0 07 	call	0xfe0	; 0xfe0 <USART0_send_string>
    STABLE_Z = 50;
    14da:	82 e3       	ldi	r24, 0x32	; 50
    14dc:	90 e0       	ldi	r25, 0x00	; 0
    14de:	90 93 01 01 	sts	0x0101, r25
    14e2:	80 93 00 01 	sts	0x0100, r24
    enable_adc();
    14e6:	0e 94 07 06 	call	0xc0e	; 0xc0e <enable_adc>
    calibrate_pressure_sensor();
    14ea:	0e 94 08 0a 	call	0x1410	; 0x1410 <calibrate_pressure_sensor>
    //init_HMC5883L();
    init_motors();
    14ee:	0e 94 7a 08 	call	0x10f4	; 0x10f4 <init_motors>
    init_data_timer();
    14f2:	0e 94 15 03 	call	0x62a	; 0x62a <init_data_timer>
    enable_bumpers();
    14f6:	0e 94 07 03 	call	0x60e	; 0x60e <enable_bumpers>
    sei();
    14fa:	78 94       	sei
    

    unsigned char data[MAX_STRING_SIZE];
    int i;
    for (i = 0; i < MAX_STRING_SIZE; ++i){
        data[i] = '\0';
    14fc:	19 82       	std	Y+1, r1	; 0x01
    14fe:	1a 82       	std	Y+2, r1	; 0x02
    1500:	1b 82       	std	Y+3, r1	; 0x03
    1502:	1d 82       	std	Y+5, r1	; 0x05
    }
    data[MAX_STRING_SIZE - 2] = '~';
    1504:	8e e7       	ldi	r24, 0x7E	; 126
    1506:	8c 83       	std	Y+4, r24	; 0x04

    move(50,50,50);
    1508:	e1 2c       	mov	r14, r1
    150a:	f1 2c       	mov	r15, r1
    150c:	08 e4       	ldi	r16, 0x48	; 72
    150e:	12 e4       	ldi	r17, 0x42	; 66
    1510:	a8 01       	movw	r20, r16
    1512:	97 01       	movw	r18, r14
    1514:	c8 01       	movw	r24, r16
    1516:	b7 01       	movw	r22, r14
    1518:	0e 94 99 08 	call	0x1132	; 0x1132 <move>
    while (1){
        USART0_Receive_String(data);
    151c:	ce 01       	movw	r24, r28
    151e:	01 96       	adiw	r24, 0x01	; 1
    1520:	0e 94 0b 08 	call	0x1016	; 0x1016 <USART0_Receive_String>
        USART0_send_string((unsigned char *)"Data received: ");
    1524:	8f ee       	ldi	r24, 0xEF	; 239
    1526:	91 e0       	ldi	r25, 0x01	; 1
    1528:	0e 94 f0 07 	call	0xfe0	; 0xfe0 <USART0_send_string>
        USART0_send_string(data);
    152c:	ce 01       	movw	r24, r28
    152e:	01 96       	adiw	r24, 0x01	; 1
    1530:	0e 94 f0 07 	call	0xfe0	; 0xfe0 <USART0_send_string>
        USART0_send_string((unsigned char *)"\r\n");
    1534:	83 e9       	ldi	r24, 0x93	; 147
    1536:	92 e0       	ldi	r25, 0x02	; 2
    1538:	0e 94 f0 07 	call	0xfe0	; 0xfe0 <USART0_send_string>

        if (strcmp((char *)data,"eee~") == 0){
    153c:	6f ef       	ldi	r22, 0xFF	; 255
    153e:	71 e0       	ldi	r23, 0x01	; 1
    1540:	ce 01       	movw	r24, r28
    1542:	01 96       	adiw	r24, 0x01	; 1
    1544:	0e 94 6d 0e 	call	0x1cda	; 0x1cda <strcmp>
    1548:	89 2b       	or	r24, r25
    154a:	69 f1       	breq	.+90     	; 0x15a6 <main+0xf0>
            UCSR0B &= ~(1<<RXEN0);
            path1();
            //enable RX0
            UCSR0B |= (1<<RXEN0);
        }
        else if (data[0] == 103 && data[1] == 103 && data[3] == 126){ //0x67 0x67 0xdd 0x7e or 103 103 ddd 126
    154c:	89 81       	ldd	r24, Y+1	; 0x01
    154e:	87 36       	cpi	r24, 0x67	; 103
    1550:	09 f4       	brne	.+2      	; 0x1554 <main+0x9e>
    1552:	59 c0       	rjmp	.+178    	; 0x1606 <main+0x150>
            USART0_send_string((unsigned char *)"Stable Z Set\r\n");
            STABLE_Z = data[2]; 
        }
        else if (strcmp((char *)data,"hhh~") == 0){ //0x68 0x68 0x68 0x7e or 104 104 104 126
    1554:	67 e2       	ldi	r22, 0x27	; 39
    1556:	72 e0       	ldi	r23, 0x02	; 2
    1558:	ce 01       	movw	r24, r28
    155a:	01 96       	adiw	r24, 0x01	; 1
    155c:	0e 94 6d 0e 	call	0x1cda	; 0x1cda <strcmp>
    1560:	89 2b       	or	r24, r25
    1562:	51 f1       	breq	.+84     	; 0x15b8 <main+0x102>
            USART0_send_string((unsigned char *)"Depth reached. Waiting for 10 seconds.\r\n");
            _delay_ms(10000);
            move(50,50,50);
            USART0_send_string((unsigned char *)"Returning to surface\r\n");
        }
        else if (strcmp((char *)data,"fff~") == 0){ //0x66 0x66 0x66 0x7e or 102 102 102 126
    1564:	60 e8       	ldi	r22, 0x80	; 128
    1566:	72 e0       	ldi	r23, 0x02	; 2
    1568:	ce 01       	movw	r24, r28
    156a:	01 96       	adiw	r24, 0x01	; 1
    156c:	0e 94 6d 0e 	call	0x1cda	; 0x1cda <strcmp>
    1570:	89 2b       	or	r24, r25
    1572:	09 f4       	brne	.+2      	; 0x1576 <main+0xc0>
    1574:	84 c0       	rjmp	.+264    	; 0x167e <main+0x1c8>
            calibrate_pressure_sensor();
        }
        else if (strcmp((char *)data,"222~") == 0){
    1576:	65 e8       	ldi	r22, 0x85	; 133
    1578:	72 e0       	ldi	r23, 0x02	; 2
    157a:	ce 01       	movw	r24, r28
    157c:	01 96       	adiw	r24, 0x01	; 1
    157e:	0e 94 6d 0e 	call	0x1cda	; 0x1cda <strcmp>
    1582:	89 2b       	or	r24, r25
    1584:	09 f0       	breq	.+2      	; 0x1588 <main+0xd2>
    1586:	52 c0       	rjmp	.+164    	; 0x162c <main+0x176>
            USART0_send_string((unsigned char *)"Stopping \r\n");
    1588:	8a e8       	ldi	r24, 0x8A	; 138
    158a:	92 e0       	ldi	r25, 0x02	; 2
    158c:	0e 94 f0 07 	call	0xfe0	; 0xfe0 <USART0_send_string>
            move(50,50,50);
    1590:	e1 2c       	mov	r14, r1
    1592:	f1 2c       	mov	r15, r1
    1594:	08 e4       	ldi	r16, 0x48	; 72
    1596:	12 e4       	ldi	r17, 0x42	; 66
    1598:	a8 01       	movw	r20, r16
    159a:	97 01       	movw	r18, r14
    159c:	c8 01       	movw	r24, r16
    159e:	b7 01       	movw	r22, r14
    15a0:	0e 94 99 08 	call	0x1132	; 0x1132 <move>
    15a4:	bb cf       	rjmp	.-138    	; 0x151c <main+0x66>
        USART0_send_string((unsigned char *)"Data received: ");
        USART0_send_string(data);
        USART0_send_string((unsigned char *)"\r\n");

        if (strcmp((char *)data,"eee~") == 0){
            USART0_send_string((unsigned char *)"Initiating path 1\r\n");
    15a6:	84 e0       	ldi	r24, 0x04	; 4
    15a8:	92 e0       	ldi	r25, 0x02	; 2
    15aa:	0e 94 f0 07 	call	0xfe0	; 0xfe0 <USART0_send_string>
            //disable RX0
            UCSR0B &= ~(1<<RXEN0);
    15ae:	54 98       	cbi	0x0a, 4	; 10
            path1();
    15b0:	0e 94 3a 03 	call	0x674	; 0x674 <path1>
            //enable RX0
            UCSR0B |= (1<<RXEN0);
    15b4:	54 9a       	sbi	0x0a, 4	; 10
    15b6:	b2 cf       	rjmp	.-156    	; 0x151c <main+0x66>
        else if (data[0] == 103 && data[1] == 103 && data[3] == 126){ //0x67 0x67 0xdd 0x7e or 103 103 ddd 126
            USART0_send_string((unsigned char *)"Stable Z Set\r\n");
            STABLE_Z = data[2]; 
        }
        else if (strcmp((char *)data,"hhh~") == 0){ //0x68 0x68 0x68 0x7e or 104 104 104 126
            USART0_send_string((unsigned char *)"Diving to 10 feet\r\n");
    15b8:	8c e2       	ldi	r24, 0x2C	; 44
    15ba:	92 e0       	ldi	r25, 0x02	; 2
    15bc:	0e 94 f0 07 	call	0xfe0	; 0xfe0 <USART0_send_string>
            dive(10);
    15c0:	60 e0       	ldi	r22, 0x00	; 0
    15c2:	70 e0       	ldi	r23, 0x00	; 0
    15c4:	80 e2       	ldi	r24, 0x20	; 32
    15c6:	91 e4       	ldi	r25, 0x41	; 65
    15c8:	0e 94 a6 02 	call	0x54c	; 0x54c <dive>
            USART0_send_string((unsigned char *)"Depth reached. Waiting for 10 seconds.\r\n");
    15cc:	80 e4       	ldi	r24, 0x40	; 64
    15ce:	92 e0       	ldi	r25, 0x02	; 2
    15d0:	0e 94 f0 07 	call	0xfe0	; 0xfe0 <USART0_send_string>
    15d4:	2a ea       	ldi	r18, 0xAA	; 170
    15d6:	36 ee       	ldi	r19, 0xE6	; 230
    15d8:	86 e9       	ldi	r24, 0x96	; 150
    15da:	91 e0       	ldi	r25, 0x01	; 1
    15dc:	21 50       	subi	r18, 0x01	; 1
    15de:	30 40       	sbci	r19, 0x00	; 0
    15e0:	80 40       	sbci	r24, 0x00	; 0
    15e2:	90 40       	sbci	r25, 0x00	; 0
    15e4:	d9 f7       	brne	.-10     	; 0x15dc <main+0x126>
    15e6:	00 00       	nop
            _delay_ms(10000);
            move(50,50,50);
    15e8:	e1 2c       	mov	r14, r1
    15ea:	f1 2c       	mov	r15, r1
    15ec:	08 e4       	ldi	r16, 0x48	; 72
    15ee:	12 e4       	ldi	r17, 0x42	; 66
    15f0:	a8 01       	movw	r20, r16
    15f2:	97 01       	movw	r18, r14
    15f4:	c8 01       	movw	r24, r16
    15f6:	b7 01       	movw	r22, r14
    15f8:	0e 94 99 08 	call	0x1132	; 0x1132 <move>
            USART0_send_string((unsigned char *)"Returning to surface\r\n");
    15fc:	89 e6       	ldi	r24, 0x69	; 105
    15fe:	92 e0       	ldi	r25, 0x02	; 2
    1600:	0e 94 f0 07 	call	0xfe0	; 0xfe0 <USART0_send_string>
    1604:	8b cf       	rjmp	.-234    	; 0x151c <main+0x66>
            UCSR0B &= ~(1<<RXEN0);
            path1();
            //enable RX0
            UCSR0B |= (1<<RXEN0);
        }
        else if (data[0] == 103 && data[1] == 103 && data[3] == 126){ //0x67 0x67 0xdd 0x7e or 103 103 ddd 126
    1606:	8a 81       	ldd	r24, Y+2	; 0x02
    1608:	87 36       	cpi	r24, 0x67	; 103
    160a:	09 f0       	breq	.+2      	; 0x160e <main+0x158>
    160c:	a3 cf       	rjmp	.-186    	; 0x1554 <main+0x9e>
    160e:	8c 81       	ldd	r24, Y+4	; 0x04
    1610:	8e 37       	cpi	r24, 0x7E	; 126
    1612:	09 f0       	breq	.+2      	; 0x1616 <main+0x160>
    1614:	9f cf       	rjmp	.-194    	; 0x1554 <main+0x9e>
            USART0_send_string((unsigned char *)"Stable Z Set\r\n");
    1616:	88 e1       	ldi	r24, 0x18	; 24
    1618:	92 e0       	ldi	r25, 0x02	; 2
    161a:	0e 94 f0 07 	call	0xfe0	; 0xfe0 <USART0_send_string>
            STABLE_Z = data[2]; 
    161e:	8b 81       	ldd	r24, Y+3	; 0x03
    1620:	90 e0       	ldi	r25, 0x00	; 0
    1622:	90 93 01 01 	sts	0x0101, r25
    1626:	80 93 00 01 	sts	0x0100, r24
    162a:	78 cf       	rjmp	.-272    	; 0x151c <main+0x66>
        else if (strcmp((char *)data,"222~") == 0){
            USART0_send_string((unsigned char *)"Stopping \r\n");
            move(50,50,50);
        }
        else{
            USART0_send_string((unsigned char *)"Moving: ");
    162c:	86 e9       	ldi	r24, 0x96	; 150
    162e:	92 e0       	ldi	r25, 0x02	; 2
    1630:	0e 94 f0 07 	call	0xfe0	; 0xfe0 <USART0_send_string>
            USART0_send_string(data);
    1634:	ce 01       	movw	r24, r28
    1636:	01 96       	adiw	r24, 0x01	; 1
    1638:	0e 94 f0 07 	call	0xfe0	; 0xfe0 <USART0_send_string>
            USART0_send_string((unsigned char*)"\r\n");
    163c:	83 e9       	ldi	r24, 0x93	; 147
    163e:	92 e0       	ldi	r25, 0x02	; 2
    1640:	0e 94 f0 07 	call	0xfe0	; 0xfe0 <USART0_send_string>
            move((float)data[0],(float)data[1],(float)data[2]);
    1644:	6b 81       	ldd	r22, Y+3	; 0x03
    1646:	70 e0       	ldi	r23, 0x00	; 0
    1648:	80 e0       	ldi	r24, 0x00	; 0
    164a:	90 e0       	ldi	r25, 0x00	; 0
    164c:	0e 94 ce 0c 	call	0x199c	; 0x199c <__floatunsisf>
    1650:	6b 01       	movw	r12, r22
    1652:	7c 01       	movw	r14, r24
    1654:	6a 81       	ldd	r22, Y+2	; 0x02
    1656:	70 e0       	ldi	r23, 0x00	; 0
    1658:	80 e0       	ldi	r24, 0x00	; 0
    165a:	90 e0       	ldi	r25, 0x00	; 0
    165c:	0e 94 ce 0c 	call	0x199c	; 0x199c <__floatunsisf>
    1660:	4b 01       	movw	r8, r22
    1662:	5c 01       	movw	r10, r24
    1664:	69 81       	ldd	r22, Y+1	; 0x01
    1666:	70 e0       	ldi	r23, 0x00	; 0
    1668:	80 e0       	ldi	r24, 0x00	; 0
    166a:	90 e0       	ldi	r25, 0x00	; 0
    166c:	0e 94 ce 0c 	call	0x199c	; 0x199c <__floatunsisf>
    1670:	87 01       	movw	r16, r14
    1672:	76 01       	movw	r14, r12
    1674:	a5 01       	movw	r20, r10
    1676:	94 01       	movw	r18, r8
    1678:	0e 94 99 08 	call	0x1132	; 0x1132 <move>
    167c:	4f cf       	rjmp	.-354    	; 0x151c <main+0x66>
            _delay_ms(10000);
            move(50,50,50);
            USART0_send_string((unsigned char *)"Returning to surface\r\n");
        }
        else if (strcmp((char *)data,"fff~") == 0){ //0x66 0x66 0x66 0x7e or 102 102 102 126
            calibrate_pressure_sensor();
    167e:	0e 94 08 0a 	call	0x1410	; 0x1410 <calibrate_pressure_sensor>
    1682:	4c cf       	rjmp	.-360    	; 0x151c <main+0x66>

00001684 <__subsf3>:
    1684:	50 58       	subi	r21, 0x80	; 128

00001686 <__addsf3>:
    1686:	bb 27       	eor	r27, r27
    1688:	aa 27       	eor	r26, r26
    168a:	0e 94 5a 0b 	call	0x16b4	; 0x16b4 <__addsf3x>
    168e:	0c 94 6d 0d 	jmp	0x1ada	; 0x1ada <__fp_round>
    1692:	0e 94 5f 0d 	call	0x1abe	; 0x1abe <__fp_pscA>
    1696:	38 f0       	brcs	.+14     	; 0x16a6 <__addsf3+0x20>
    1698:	0e 94 66 0d 	call	0x1acc	; 0x1acc <__fp_pscB>
    169c:	20 f0       	brcs	.+8      	; 0x16a6 <__addsf3+0x20>
    169e:	39 f4       	brne	.+14     	; 0x16ae <__addsf3+0x28>
    16a0:	9f 3f       	cpi	r25, 0xFF	; 255
    16a2:	19 f4       	brne	.+6      	; 0x16aa <__addsf3+0x24>
    16a4:	26 f4       	brtc	.+8      	; 0x16ae <__addsf3+0x28>
    16a6:	0c 94 35 0d 	jmp	0x1a6a	; 0x1a6a <__fp_nan>
    16aa:	0e f4       	brtc	.+2      	; 0x16ae <__addsf3+0x28>
    16ac:	e0 95       	com	r30
    16ae:	e7 fb       	bst	r30, 7
    16b0:	0c 94 2f 0d 	jmp	0x1a5e	; 0x1a5e <__fp_inf>

000016b4 <__addsf3x>:
    16b4:	e9 2f       	mov	r30, r25
    16b6:	0e 94 7e 0d 	call	0x1afc	; 0x1afc <__fp_split3>
    16ba:	58 f3       	brcs	.-42     	; 0x1692 <__addsf3+0xc>
    16bc:	ba 17       	cp	r27, r26
    16be:	62 07       	cpc	r22, r18
    16c0:	73 07       	cpc	r23, r19
    16c2:	84 07       	cpc	r24, r20
    16c4:	95 07       	cpc	r25, r21
    16c6:	20 f0       	brcs	.+8      	; 0x16d0 <__addsf3x+0x1c>
    16c8:	79 f4       	brne	.+30     	; 0x16e8 <__addsf3x+0x34>
    16ca:	a6 f5       	brtc	.+104    	; 0x1734 <__addsf3x+0x80>
    16cc:	0c 94 a0 0d 	jmp	0x1b40	; 0x1b40 <__fp_zero>
    16d0:	0e f4       	brtc	.+2      	; 0x16d4 <__addsf3x+0x20>
    16d2:	e0 95       	com	r30
    16d4:	0b 2e       	mov	r0, r27
    16d6:	ba 2f       	mov	r27, r26
    16d8:	a0 2d       	mov	r26, r0
    16da:	0b 01       	movw	r0, r22
    16dc:	b9 01       	movw	r22, r18
    16de:	90 01       	movw	r18, r0
    16e0:	0c 01       	movw	r0, r24
    16e2:	ca 01       	movw	r24, r20
    16e4:	a0 01       	movw	r20, r0
    16e6:	11 24       	eor	r1, r1
    16e8:	ff 27       	eor	r31, r31
    16ea:	59 1b       	sub	r21, r25
    16ec:	99 f0       	breq	.+38     	; 0x1714 <__addsf3x+0x60>
    16ee:	59 3f       	cpi	r21, 0xF9	; 249
    16f0:	50 f4       	brcc	.+20     	; 0x1706 <__addsf3x+0x52>
    16f2:	50 3e       	cpi	r21, 0xE0	; 224
    16f4:	68 f1       	brcs	.+90     	; 0x1750 <__addsf3x+0x9c>
    16f6:	1a 16       	cp	r1, r26
    16f8:	f0 40       	sbci	r31, 0x00	; 0
    16fa:	a2 2f       	mov	r26, r18
    16fc:	23 2f       	mov	r18, r19
    16fe:	34 2f       	mov	r19, r20
    1700:	44 27       	eor	r20, r20
    1702:	58 5f       	subi	r21, 0xF8	; 248
    1704:	f3 cf       	rjmp	.-26     	; 0x16ec <__addsf3x+0x38>
    1706:	46 95       	lsr	r20
    1708:	37 95       	ror	r19
    170a:	27 95       	ror	r18
    170c:	a7 95       	ror	r26
    170e:	f0 40       	sbci	r31, 0x00	; 0
    1710:	53 95       	inc	r21
    1712:	c9 f7       	brne	.-14     	; 0x1706 <__addsf3x+0x52>
    1714:	7e f4       	brtc	.+30     	; 0x1734 <__addsf3x+0x80>
    1716:	1f 16       	cp	r1, r31
    1718:	ba 0b       	sbc	r27, r26
    171a:	62 0b       	sbc	r22, r18
    171c:	73 0b       	sbc	r23, r19
    171e:	84 0b       	sbc	r24, r20
    1720:	ba f0       	brmi	.+46     	; 0x1750 <__addsf3x+0x9c>
    1722:	91 50       	subi	r25, 0x01	; 1
    1724:	a1 f0       	breq	.+40     	; 0x174e <__addsf3x+0x9a>
    1726:	ff 0f       	add	r31, r31
    1728:	bb 1f       	adc	r27, r27
    172a:	66 1f       	adc	r22, r22
    172c:	77 1f       	adc	r23, r23
    172e:	88 1f       	adc	r24, r24
    1730:	c2 f7       	brpl	.-16     	; 0x1722 <__addsf3x+0x6e>
    1732:	0e c0       	rjmp	.+28     	; 0x1750 <__addsf3x+0x9c>
    1734:	ba 0f       	add	r27, r26
    1736:	62 1f       	adc	r22, r18
    1738:	73 1f       	adc	r23, r19
    173a:	84 1f       	adc	r24, r20
    173c:	48 f4       	brcc	.+18     	; 0x1750 <__addsf3x+0x9c>
    173e:	87 95       	ror	r24
    1740:	77 95       	ror	r23
    1742:	67 95       	ror	r22
    1744:	b7 95       	ror	r27
    1746:	f7 95       	ror	r31
    1748:	9e 3f       	cpi	r25, 0xFE	; 254
    174a:	08 f0       	brcs	.+2      	; 0x174e <__addsf3x+0x9a>
    174c:	b0 cf       	rjmp	.-160    	; 0x16ae <__addsf3+0x28>
    174e:	93 95       	inc	r25
    1750:	88 0f       	add	r24, r24
    1752:	08 f0       	brcs	.+2      	; 0x1756 <__addsf3x+0xa2>
    1754:	99 27       	eor	r25, r25
    1756:	ee 0f       	add	r30, r30
    1758:	97 95       	ror	r25
    175a:	87 95       	ror	r24
    175c:	08 95       	ret
    175e:	0e 94 5f 0d 	call	0x1abe	; 0x1abe <__fp_pscA>
    1762:	60 f0       	brcs	.+24     	; 0x177c <__addsf3x+0xc8>
    1764:	80 e8       	ldi	r24, 0x80	; 128
    1766:	91 e0       	ldi	r25, 0x01	; 1
    1768:	09 f4       	brne	.+2      	; 0x176c <__addsf3x+0xb8>
    176a:	9e ef       	ldi	r25, 0xFE	; 254
    176c:	0e 94 66 0d 	call	0x1acc	; 0x1acc <__fp_pscB>
    1770:	28 f0       	brcs	.+10     	; 0x177c <__addsf3x+0xc8>
    1772:	40 e8       	ldi	r20, 0x80	; 128
    1774:	51 e0       	ldi	r21, 0x01	; 1
    1776:	71 f4       	brne	.+28     	; 0x1794 <atan2+0x10>
    1778:	5e ef       	ldi	r21, 0xFE	; 254
    177a:	0c c0       	rjmp	.+24     	; 0x1794 <atan2+0x10>
    177c:	0c 94 35 0d 	jmp	0x1a6a	; 0x1a6a <__fp_nan>
    1780:	0c 94 a0 0d 	jmp	0x1b40	; 0x1b40 <__fp_zero>

00001784 <atan2>:
    1784:	e9 2f       	mov	r30, r25
    1786:	e0 78       	andi	r30, 0x80	; 128
    1788:	0e 94 7e 0d 	call	0x1afc	; 0x1afc <__fp_split3>
    178c:	40 f3       	brcs	.-48     	; 0x175e <__addsf3x+0xaa>
    178e:	09 2e       	mov	r0, r25
    1790:	05 2a       	or	r0, r21
    1792:	b1 f3       	breq	.-20     	; 0x1780 <__addsf3x+0xcc>
    1794:	26 17       	cp	r18, r22
    1796:	37 07       	cpc	r19, r23
    1798:	48 07       	cpc	r20, r24
    179a:	59 07       	cpc	r21, r25
    179c:	38 f0       	brcs	.+14     	; 0x17ac <atan2+0x28>
    179e:	0e 2e       	mov	r0, r30
    17a0:	07 f8       	bld	r0, 7
    17a2:	e0 25       	eor	r30, r0
    17a4:	69 f0       	breq	.+26     	; 0x17c0 <atan2+0x3c>
    17a6:	e0 25       	eor	r30, r0
    17a8:	e0 64       	ori	r30, 0x40	; 64
    17aa:	0a c0       	rjmp	.+20     	; 0x17c0 <atan2+0x3c>
    17ac:	ef 63       	ori	r30, 0x3F	; 63
    17ae:	07 f8       	bld	r0, 7
    17b0:	00 94       	com	r0
    17b2:	07 fa       	bst	r0, 7
    17b4:	db 01       	movw	r26, r22
    17b6:	b9 01       	movw	r22, r18
    17b8:	9d 01       	movw	r18, r26
    17ba:	dc 01       	movw	r26, r24
    17bc:	ca 01       	movw	r24, r20
    17be:	ad 01       	movw	r20, r26
    17c0:	ef 93       	push	r30
    17c2:	0e 94 3d 0c 	call	0x187a	; 0x187a <__divsf3_pse>
    17c6:	0e 94 6d 0d 	call	0x1ada	; 0x1ada <__fp_round>
    17ca:	0e 94 f2 0b 	call	0x17e4	; 0x17e4 <atan>
    17ce:	5f 91       	pop	r21
    17d0:	55 23       	and	r21, r21
    17d2:	39 f0       	breq	.+14     	; 0x17e2 <atan2+0x5e>
    17d4:	2b ed       	ldi	r18, 0xDB	; 219
    17d6:	3f e0       	ldi	r19, 0x0F	; 15
    17d8:	49 e4       	ldi	r20, 0x49	; 73
    17da:	50 fd       	sbrc	r21, 0
    17dc:	49 ec       	ldi	r20, 0xC9	; 201
    17de:	0c 94 43 0b 	jmp	0x1686	; 0x1686 <__addsf3>
    17e2:	08 95       	ret

000017e4 <atan>:
    17e4:	df 93       	push	r29
    17e6:	dd 27       	eor	r29, r29
    17e8:	b9 2f       	mov	r27, r25
    17ea:	bf 77       	andi	r27, 0x7F	; 127
    17ec:	40 e8       	ldi	r20, 0x80	; 128
    17ee:	5f e3       	ldi	r21, 0x3F	; 63
    17f0:	16 16       	cp	r1, r22
    17f2:	17 06       	cpc	r1, r23
    17f4:	48 07       	cpc	r20, r24
    17f6:	5b 07       	cpc	r21, r27
    17f8:	18 f4       	brcc	.+6      	; 0x1800 <atan+0x1c>
    17fa:	d9 2f       	mov	r29, r25
    17fc:	0e 94 ac 0d 	call	0x1b58	; 0x1b58 <inverse>
    1800:	9f 93       	push	r25
    1802:	8f 93       	push	r24
    1804:	7f 93       	push	r23
    1806:	6f 93       	push	r22
    1808:	0e 94 21 0e 	call	0x1c42	; 0x1c42 <square>
    180c:	ec e8       	ldi	r30, 0x8C	; 140
    180e:	f0 e0       	ldi	r31, 0x00	; 0
    1810:	0e 94 38 0d 	call	0x1a70	; 0x1a70 <__fp_powser>
    1814:	0e 94 6d 0d 	call	0x1ada	; 0x1ada <__fp_round>
    1818:	2f 91       	pop	r18
    181a:	3f 91       	pop	r19
    181c:	4f 91       	pop	r20
    181e:	5f 91       	pop	r21
    1820:	0e 94 c7 0d 	call	0x1b8e	; 0x1b8e <__mulsf3x>
    1824:	dd 23       	and	r29, r29
    1826:	51 f0       	breq	.+20     	; 0x183c <atan+0x58>
    1828:	90 58       	subi	r25, 0x80	; 128
    182a:	a2 ea       	ldi	r26, 0xA2	; 162
    182c:	2a ed       	ldi	r18, 0xDA	; 218
    182e:	3f e0       	ldi	r19, 0x0F	; 15
    1830:	49 ec       	ldi	r20, 0xC9	; 201
    1832:	5f e3       	ldi	r21, 0x3F	; 63
    1834:	d0 78       	andi	r29, 0x80	; 128
    1836:	5d 27       	eor	r21, r29
    1838:	0e 94 5a 0b 	call	0x16b4	; 0x16b4 <__addsf3x>
    183c:	df 91       	pop	r29
    183e:	0c 94 6d 0d 	jmp	0x1ada	; 0x1ada <__fp_round>

00001842 <__cmpsf2>:
    1842:	0e 94 0b 0d 	call	0x1a16	; 0x1a16 <__fp_cmp>
    1846:	08 f4       	brcc	.+2      	; 0x184a <__cmpsf2+0x8>
    1848:	81 e0       	ldi	r24, 0x01	; 1
    184a:	08 95       	ret

0000184c <__divsf3>:
    184c:	0e 94 3a 0c 	call	0x1874	; 0x1874 <__divsf3x>
    1850:	0c 94 6d 0d 	jmp	0x1ada	; 0x1ada <__fp_round>
    1854:	0e 94 66 0d 	call	0x1acc	; 0x1acc <__fp_pscB>
    1858:	58 f0       	brcs	.+22     	; 0x1870 <__divsf3+0x24>
    185a:	0e 94 5f 0d 	call	0x1abe	; 0x1abe <__fp_pscA>
    185e:	40 f0       	brcs	.+16     	; 0x1870 <__divsf3+0x24>
    1860:	29 f4       	brne	.+10     	; 0x186c <__divsf3+0x20>
    1862:	5f 3f       	cpi	r21, 0xFF	; 255
    1864:	29 f0       	breq	.+10     	; 0x1870 <__divsf3+0x24>
    1866:	0c 94 2f 0d 	jmp	0x1a5e	; 0x1a5e <__fp_inf>
    186a:	51 11       	cpse	r21, r1
    186c:	0c 94 a1 0d 	jmp	0x1b42	; 0x1b42 <__fp_szero>
    1870:	0c 94 35 0d 	jmp	0x1a6a	; 0x1a6a <__fp_nan>

00001874 <__divsf3x>:
    1874:	0e 94 7e 0d 	call	0x1afc	; 0x1afc <__fp_split3>
    1878:	68 f3       	brcs	.-38     	; 0x1854 <__divsf3+0x8>

0000187a <__divsf3_pse>:
    187a:	99 23       	and	r25, r25
    187c:	b1 f3       	breq	.-20     	; 0x186a <__divsf3+0x1e>
    187e:	55 23       	and	r21, r21
    1880:	91 f3       	breq	.-28     	; 0x1866 <__divsf3+0x1a>
    1882:	95 1b       	sub	r25, r21
    1884:	55 0b       	sbc	r21, r21
    1886:	bb 27       	eor	r27, r27
    1888:	aa 27       	eor	r26, r26
    188a:	62 17       	cp	r22, r18
    188c:	73 07       	cpc	r23, r19
    188e:	84 07       	cpc	r24, r20
    1890:	38 f0       	brcs	.+14     	; 0x18a0 <__divsf3_pse+0x26>
    1892:	9f 5f       	subi	r25, 0xFF	; 255
    1894:	5f 4f       	sbci	r21, 0xFF	; 255
    1896:	22 0f       	add	r18, r18
    1898:	33 1f       	adc	r19, r19
    189a:	44 1f       	adc	r20, r20
    189c:	aa 1f       	adc	r26, r26
    189e:	a9 f3       	breq	.-22     	; 0x188a <__divsf3_pse+0x10>
    18a0:	35 d0       	rcall	.+106    	; 0x190c <__divsf3_pse+0x92>
    18a2:	0e 2e       	mov	r0, r30
    18a4:	3a f0       	brmi	.+14     	; 0x18b4 <__divsf3_pse+0x3a>
    18a6:	e0 e8       	ldi	r30, 0x80	; 128
    18a8:	32 d0       	rcall	.+100    	; 0x190e <__divsf3_pse+0x94>
    18aa:	91 50       	subi	r25, 0x01	; 1
    18ac:	50 40       	sbci	r21, 0x00	; 0
    18ae:	e6 95       	lsr	r30
    18b0:	00 1c       	adc	r0, r0
    18b2:	ca f7       	brpl	.-14     	; 0x18a6 <__divsf3_pse+0x2c>
    18b4:	2b d0       	rcall	.+86     	; 0x190c <__divsf3_pse+0x92>
    18b6:	fe 2f       	mov	r31, r30
    18b8:	29 d0       	rcall	.+82     	; 0x190c <__divsf3_pse+0x92>
    18ba:	66 0f       	add	r22, r22
    18bc:	77 1f       	adc	r23, r23
    18be:	88 1f       	adc	r24, r24
    18c0:	bb 1f       	adc	r27, r27
    18c2:	26 17       	cp	r18, r22
    18c4:	37 07       	cpc	r19, r23
    18c6:	48 07       	cpc	r20, r24
    18c8:	ab 07       	cpc	r26, r27
    18ca:	b0 e8       	ldi	r27, 0x80	; 128
    18cc:	09 f0       	breq	.+2      	; 0x18d0 <__divsf3_pse+0x56>
    18ce:	bb 0b       	sbc	r27, r27
    18d0:	80 2d       	mov	r24, r0
    18d2:	bf 01       	movw	r22, r30
    18d4:	ff 27       	eor	r31, r31
    18d6:	93 58       	subi	r25, 0x83	; 131
    18d8:	5f 4f       	sbci	r21, 0xFF	; 255
    18da:	3a f0       	brmi	.+14     	; 0x18ea <__divsf3_pse+0x70>
    18dc:	9e 3f       	cpi	r25, 0xFE	; 254
    18de:	51 05       	cpc	r21, r1
    18e0:	78 f0       	brcs	.+30     	; 0x1900 <__divsf3_pse+0x86>
    18e2:	0c 94 2f 0d 	jmp	0x1a5e	; 0x1a5e <__fp_inf>
    18e6:	0c 94 a1 0d 	jmp	0x1b42	; 0x1b42 <__fp_szero>
    18ea:	5f 3f       	cpi	r21, 0xFF	; 255
    18ec:	e4 f3       	brlt	.-8      	; 0x18e6 <__divsf3_pse+0x6c>
    18ee:	98 3e       	cpi	r25, 0xE8	; 232
    18f0:	d4 f3       	brlt	.-12     	; 0x18e6 <__divsf3_pse+0x6c>
    18f2:	86 95       	lsr	r24
    18f4:	77 95       	ror	r23
    18f6:	67 95       	ror	r22
    18f8:	b7 95       	ror	r27
    18fa:	f7 95       	ror	r31
    18fc:	9f 5f       	subi	r25, 0xFF	; 255
    18fe:	c9 f7       	brne	.-14     	; 0x18f2 <__divsf3_pse+0x78>
    1900:	88 0f       	add	r24, r24
    1902:	91 1d       	adc	r25, r1
    1904:	96 95       	lsr	r25
    1906:	87 95       	ror	r24
    1908:	97 f9       	bld	r25, 7
    190a:	08 95       	ret
    190c:	e1 e0       	ldi	r30, 0x01	; 1
    190e:	66 0f       	add	r22, r22
    1910:	77 1f       	adc	r23, r23
    1912:	88 1f       	adc	r24, r24
    1914:	bb 1f       	adc	r27, r27
    1916:	62 17       	cp	r22, r18
    1918:	73 07       	cpc	r23, r19
    191a:	84 07       	cpc	r24, r20
    191c:	ba 07       	cpc	r27, r26
    191e:	20 f0       	brcs	.+8      	; 0x1928 <__divsf3_pse+0xae>
    1920:	62 1b       	sub	r22, r18
    1922:	73 0b       	sbc	r23, r19
    1924:	84 0b       	sbc	r24, r20
    1926:	ba 0b       	sbc	r27, r26
    1928:	ee 1f       	adc	r30, r30
    192a:	88 f7       	brcc	.-30     	; 0x190e <__divsf3_pse+0x94>
    192c:	e0 95       	com	r30
    192e:	08 95       	ret

00001930 <__fixsfsi>:
    1930:	0e 94 9f 0c 	call	0x193e	; 0x193e <__fixunssfsi>
    1934:	68 94       	set
    1936:	b1 11       	cpse	r27, r1
    1938:	0c 94 a1 0d 	jmp	0x1b42	; 0x1b42 <__fp_szero>
    193c:	08 95       	ret

0000193e <__fixunssfsi>:
    193e:	0e 94 86 0d 	call	0x1b0c	; 0x1b0c <__fp_splitA>
    1942:	88 f0       	brcs	.+34     	; 0x1966 <__fixunssfsi+0x28>
    1944:	9f 57       	subi	r25, 0x7F	; 127
    1946:	98 f0       	brcs	.+38     	; 0x196e <__fixunssfsi+0x30>
    1948:	b9 2f       	mov	r27, r25
    194a:	99 27       	eor	r25, r25
    194c:	b7 51       	subi	r27, 0x17	; 23
    194e:	b0 f0       	brcs	.+44     	; 0x197c <__fixunssfsi+0x3e>
    1950:	e1 f0       	breq	.+56     	; 0x198a <__fixunssfsi+0x4c>
    1952:	66 0f       	add	r22, r22
    1954:	77 1f       	adc	r23, r23
    1956:	88 1f       	adc	r24, r24
    1958:	99 1f       	adc	r25, r25
    195a:	1a f0       	brmi	.+6      	; 0x1962 <__fixunssfsi+0x24>
    195c:	ba 95       	dec	r27
    195e:	c9 f7       	brne	.-14     	; 0x1952 <__fixunssfsi+0x14>
    1960:	14 c0       	rjmp	.+40     	; 0x198a <__fixunssfsi+0x4c>
    1962:	b1 30       	cpi	r27, 0x01	; 1
    1964:	91 f0       	breq	.+36     	; 0x198a <__fixunssfsi+0x4c>
    1966:	0e 94 a0 0d 	call	0x1b40	; 0x1b40 <__fp_zero>
    196a:	b1 e0       	ldi	r27, 0x01	; 1
    196c:	08 95       	ret
    196e:	0c 94 a0 0d 	jmp	0x1b40	; 0x1b40 <__fp_zero>
    1972:	67 2f       	mov	r22, r23
    1974:	78 2f       	mov	r23, r24
    1976:	88 27       	eor	r24, r24
    1978:	b8 5f       	subi	r27, 0xF8	; 248
    197a:	39 f0       	breq	.+14     	; 0x198a <__fixunssfsi+0x4c>
    197c:	b9 3f       	cpi	r27, 0xF9	; 249
    197e:	cc f3       	brlt	.-14     	; 0x1972 <__fixunssfsi+0x34>
    1980:	86 95       	lsr	r24
    1982:	77 95       	ror	r23
    1984:	67 95       	ror	r22
    1986:	b3 95       	inc	r27
    1988:	d9 f7       	brne	.-10     	; 0x1980 <__fixunssfsi+0x42>
    198a:	3e f4       	brtc	.+14     	; 0x199a <__fixunssfsi+0x5c>
    198c:	90 95       	com	r25
    198e:	80 95       	com	r24
    1990:	70 95       	com	r23
    1992:	61 95       	neg	r22
    1994:	7f 4f       	sbci	r23, 0xFF	; 255
    1996:	8f 4f       	sbci	r24, 0xFF	; 255
    1998:	9f 4f       	sbci	r25, 0xFF	; 255
    199a:	08 95       	ret

0000199c <__floatunsisf>:
    199c:	e8 94       	clt
    199e:	09 c0       	rjmp	.+18     	; 0x19b2 <__floatsisf+0x12>

000019a0 <__floatsisf>:
    19a0:	97 fb       	bst	r25, 7
    19a2:	3e f4       	brtc	.+14     	; 0x19b2 <__floatsisf+0x12>
    19a4:	90 95       	com	r25
    19a6:	80 95       	com	r24
    19a8:	70 95       	com	r23
    19aa:	61 95       	neg	r22
    19ac:	7f 4f       	sbci	r23, 0xFF	; 255
    19ae:	8f 4f       	sbci	r24, 0xFF	; 255
    19b0:	9f 4f       	sbci	r25, 0xFF	; 255
    19b2:	99 23       	and	r25, r25
    19b4:	a9 f0       	breq	.+42     	; 0x19e0 <__floatsisf+0x40>
    19b6:	f9 2f       	mov	r31, r25
    19b8:	96 e9       	ldi	r25, 0x96	; 150
    19ba:	bb 27       	eor	r27, r27
    19bc:	93 95       	inc	r25
    19be:	f6 95       	lsr	r31
    19c0:	87 95       	ror	r24
    19c2:	77 95       	ror	r23
    19c4:	67 95       	ror	r22
    19c6:	b7 95       	ror	r27
    19c8:	f1 11       	cpse	r31, r1
    19ca:	f8 cf       	rjmp	.-16     	; 0x19bc <__floatsisf+0x1c>
    19cc:	fa f4       	brpl	.+62     	; 0x1a0c <__floatsisf+0x6c>
    19ce:	bb 0f       	add	r27, r27
    19d0:	11 f4       	brne	.+4      	; 0x19d6 <__floatsisf+0x36>
    19d2:	60 ff       	sbrs	r22, 0
    19d4:	1b c0       	rjmp	.+54     	; 0x1a0c <__floatsisf+0x6c>
    19d6:	6f 5f       	subi	r22, 0xFF	; 255
    19d8:	7f 4f       	sbci	r23, 0xFF	; 255
    19da:	8f 4f       	sbci	r24, 0xFF	; 255
    19dc:	9f 4f       	sbci	r25, 0xFF	; 255
    19de:	16 c0       	rjmp	.+44     	; 0x1a0c <__floatsisf+0x6c>
    19e0:	88 23       	and	r24, r24
    19e2:	11 f0       	breq	.+4      	; 0x19e8 <__floatsisf+0x48>
    19e4:	96 e9       	ldi	r25, 0x96	; 150
    19e6:	11 c0       	rjmp	.+34     	; 0x1a0a <__floatsisf+0x6a>
    19e8:	77 23       	and	r23, r23
    19ea:	21 f0       	breq	.+8      	; 0x19f4 <__floatsisf+0x54>
    19ec:	9e e8       	ldi	r25, 0x8E	; 142
    19ee:	87 2f       	mov	r24, r23
    19f0:	76 2f       	mov	r23, r22
    19f2:	05 c0       	rjmp	.+10     	; 0x19fe <__floatsisf+0x5e>
    19f4:	66 23       	and	r22, r22
    19f6:	71 f0       	breq	.+28     	; 0x1a14 <__floatsisf+0x74>
    19f8:	96 e8       	ldi	r25, 0x86	; 134
    19fa:	86 2f       	mov	r24, r22
    19fc:	70 e0       	ldi	r23, 0x00	; 0
    19fe:	60 e0       	ldi	r22, 0x00	; 0
    1a00:	2a f0       	brmi	.+10     	; 0x1a0c <__floatsisf+0x6c>
    1a02:	9a 95       	dec	r25
    1a04:	66 0f       	add	r22, r22
    1a06:	77 1f       	adc	r23, r23
    1a08:	88 1f       	adc	r24, r24
    1a0a:	da f7       	brpl	.-10     	; 0x1a02 <__floatsisf+0x62>
    1a0c:	88 0f       	add	r24, r24
    1a0e:	96 95       	lsr	r25
    1a10:	87 95       	ror	r24
    1a12:	97 f9       	bld	r25, 7
    1a14:	08 95       	ret

00001a16 <__fp_cmp>:
    1a16:	99 0f       	add	r25, r25
    1a18:	00 08       	sbc	r0, r0
    1a1a:	55 0f       	add	r21, r21
    1a1c:	aa 0b       	sbc	r26, r26
    1a1e:	e0 e8       	ldi	r30, 0x80	; 128
    1a20:	fe ef       	ldi	r31, 0xFE	; 254
    1a22:	16 16       	cp	r1, r22
    1a24:	17 06       	cpc	r1, r23
    1a26:	e8 07       	cpc	r30, r24
    1a28:	f9 07       	cpc	r31, r25
    1a2a:	c0 f0       	brcs	.+48     	; 0x1a5c <__fp_cmp+0x46>
    1a2c:	12 16       	cp	r1, r18
    1a2e:	13 06       	cpc	r1, r19
    1a30:	e4 07       	cpc	r30, r20
    1a32:	f5 07       	cpc	r31, r21
    1a34:	98 f0       	brcs	.+38     	; 0x1a5c <__fp_cmp+0x46>
    1a36:	62 1b       	sub	r22, r18
    1a38:	73 0b       	sbc	r23, r19
    1a3a:	84 0b       	sbc	r24, r20
    1a3c:	95 0b       	sbc	r25, r21
    1a3e:	39 f4       	brne	.+14     	; 0x1a4e <__fp_cmp+0x38>
    1a40:	0a 26       	eor	r0, r26
    1a42:	61 f0       	breq	.+24     	; 0x1a5c <__fp_cmp+0x46>
    1a44:	23 2b       	or	r18, r19
    1a46:	24 2b       	or	r18, r20
    1a48:	25 2b       	or	r18, r21
    1a4a:	21 f4       	brne	.+8      	; 0x1a54 <__fp_cmp+0x3e>
    1a4c:	08 95       	ret
    1a4e:	0a 26       	eor	r0, r26
    1a50:	09 f4       	brne	.+2      	; 0x1a54 <__fp_cmp+0x3e>
    1a52:	a1 40       	sbci	r26, 0x01	; 1
    1a54:	a6 95       	lsr	r26
    1a56:	8f ef       	ldi	r24, 0xFF	; 255
    1a58:	81 1d       	adc	r24, r1
    1a5a:	81 1d       	adc	r24, r1
    1a5c:	08 95       	ret

00001a5e <__fp_inf>:
    1a5e:	97 f9       	bld	r25, 7
    1a60:	9f 67       	ori	r25, 0x7F	; 127
    1a62:	80 e8       	ldi	r24, 0x80	; 128
    1a64:	70 e0       	ldi	r23, 0x00	; 0
    1a66:	60 e0       	ldi	r22, 0x00	; 0
    1a68:	08 95       	ret

00001a6a <__fp_nan>:
    1a6a:	9f ef       	ldi	r25, 0xFF	; 255
    1a6c:	80 ec       	ldi	r24, 0xC0	; 192
    1a6e:	08 95       	ret

00001a70 <__fp_powser>:
    1a70:	df 93       	push	r29
    1a72:	cf 93       	push	r28
    1a74:	1f 93       	push	r17
    1a76:	0f 93       	push	r16
    1a78:	ff 92       	push	r15
    1a7a:	ef 92       	push	r14
    1a7c:	df 92       	push	r13
    1a7e:	7b 01       	movw	r14, r22
    1a80:	8c 01       	movw	r16, r24
    1a82:	68 94       	set
    1a84:	06 c0       	rjmp	.+12     	; 0x1a92 <__fp_powser+0x22>
    1a86:	da 2e       	mov	r13, r26
    1a88:	ef 01       	movw	r28, r30
    1a8a:	0e 94 c7 0d 	call	0x1b8e	; 0x1b8e <__mulsf3x>
    1a8e:	fe 01       	movw	r30, r28
    1a90:	e8 94       	clt
    1a92:	a5 91       	lpm	r26, Z+
    1a94:	25 91       	lpm	r18, Z+
    1a96:	35 91       	lpm	r19, Z+
    1a98:	45 91       	lpm	r20, Z+
    1a9a:	55 91       	lpm	r21, Z+
    1a9c:	a6 f3       	brts	.-24     	; 0x1a86 <__fp_powser+0x16>
    1a9e:	ef 01       	movw	r28, r30
    1aa0:	0e 94 5a 0b 	call	0x16b4	; 0x16b4 <__addsf3x>
    1aa4:	fe 01       	movw	r30, r28
    1aa6:	97 01       	movw	r18, r14
    1aa8:	a8 01       	movw	r20, r16
    1aaa:	da 94       	dec	r13
    1aac:	69 f7       	brne	.-38     	; 0x1a88 <__fp_powser+0x18>
    1aae:	df 90       	pop	r13
    1ab0:	ef 90       	pop	r14
    1ab2:	ff 90       	pop	r15
    1ab4:	0f 91       	pop	r16
    1ab6:	1f 91       	pop	r17
    1ab8:	cf 91       	pop	r28
    1aba:	df 91       	pop	r29
    1abc:	08 95       	ret

00001abe <__fp_pscA>:
    1abe:	00 24       	eor	r0, r0
    1ac0:	0a 94       	dec	r0
    1ac2:	16 16       	cp	r1, r22
    1ac4:	17 06       	cpc	r1, r23
    1ac6:	18 06       	cpc	r1, r24
    1ac8:	09 06       	cpc	r0, r25
    1aca:	08 95       	ret

00001acc <__fp_pscB>:
    1acc:	00 24       	eor	r0, r0
    1ace:	0a 94       	dec	r0
    1ad0:	12 16       	cp	r1, r18
    1ad2:	13 06       	cpc	r1, r19
    1ad4:	14 06       	cpc	r1, r20
    1ad6:	05 06       	cpc	r0, r21
    1ad8:	08 95       	ret

00001ada <__fp_round>:
    1ada:	09 2e       	mov	r0, r25
    1adc:	03 94       	inc	r0
    1ade:	00 0c       	add	r0, r0
    1ae0:	11 f4       	brne	.+4      	; 0x1ae6 <__fp_round+0xc>
    1ae2:	88 23       	and	r24, r24
    1ae4:	52 f0       	brmi	.+20     	; 0x1afa <__fp_round+0x20>
    1ae6:	bb 0f       	add	r27, r27
    1ae8:	40 f4       	brcc	.+16     	; 0x1afa <__fp_round+0x20>
    1aea:	bf 2b       	or	r27, r31
    1aec:	11 f4       	brne	.+4      	; 0x1af2 <__fp_round+0x18>
    1aee:	60 ff       	sbrs	r22, 0
    1af0:	04 c0       	rjmp	.+8      	; 0x1afa <__fp_round+0x20>
    1af2:	6f 5f       	subi	r22, 0xFF	; 255
    1af4:	7f 4f       	sbci	r23, 0xFF	; 255
    1af6:	8f 4f       	sbci	r24, 0xFF	; 255
    1af8:	9f 4f       	sbci	r25, 0xFF	; 255
    1afa:	08 95       	ret

00001afc <__fp_split3>:
    1afc:	57 fd       	sbrc	r21, 7
    1afe:	90 58       	subi	r25, 0x80	; 128
    1b00:	44 0f       	add	r20, r20
    1b02:	55 1f       	adc	r21, r21
    1b04:	59 f0       	breq	.+22     	; 0x1b1c <__fp_splitA+0x10>
    1b06:	5f 3f       	cpi	r21, 0xFF	; 255
    1b08:	71 f0       	breq	.+28     	; 0x1b26 <__fp_splitA+0x1a>
    1b0a:	47 95       	ror	r20

00001b0c <__fp_splitA>:
    1b0c:	88 0f       	add	r24, r24
    1b0e:	97 fb       	bst	r25, 7
    1b10:	99 1f       	adc	r25, r25
    1b12:	61 f0       	breq	.+24     	; 0x1b2c <__fp_splitA+0x20>
    1b14:	9f 3f       	cpi	r25, 0xFF	; 255
    1b16:	79 f0       	breq	.+30     	; 0x1b36 <__fp_splitA+0x2a>
    1b18:	87 95       	ror	r24
    1b1a:	08 95       	ret
    1b1c:	12 16       	cp	r1, r18
    1b1e:	13 06       	cpc	r1, r19
    1b20:	14 06       	cpc	r1, r20
    1b22:	55 1f       	adc	r21, r21
    1b24:	f2 cf       	rjmp	.-28     	; 0x1b0a <__fp_split3+0xe>
    1b26:	46 95       	lsr	r20
    1b28:	f1 df       	rcall	.-30     	; 0x1b0c <__fp_splitA>
    1b2a:	08 c0       	rjmp	.+16     	; 0x1b3c <__fp_splitA+0x30>
    1b2c:	16 16       	cp	r1, r22
    1b2e:	17 06       	cpc	r1, r23
    1b30:	18 06       	cpc	r1, r24
    1b32:	99 1f       	adc	r25, r25
    1b34:	f1 cf       	rjmp	.-30     	; 0x1b18 <__fp_splitA+0xc>
    1b36:	86 95       	lsr	r24
    1b38:	71 05       	cpc	r23, r1
    1b3a:	61 05       	cpc	r22, r1
    1b3c:	08 94       	sec
    1b3e:	08 95       	ret

00001b40 <__fp_zero>:
    1b40:	e8 94       	clt

00001b42 <__fp_szero>:
    1b42:	bb 27       	eor	r27, r27
    1b44:	66 27       	eor	r22, r22
    1b46:	77 27       	eor	r23, r23
    1b48:	cb 01       	movw	r24, r22
    1b4a:	97 f9       	bld	r25, 7
    1b4c:	08 95       	ret

00001b4e <__gesf2>:
    1b4e:	0e 94 0b 0d 	call	0x1a16	; 0x1a16 <__fp_cmp>
    1b52:	08 f4       	brcc	.+2      	; 0x1b56 <__gesf2+0x8>
    1b54:	8f ef       	ldi	r24, 0xFF	; 255
    1b56:	08 95       	ret

00001b58 <inverse>:
    1b58:	9b 01       	movw	r18, r22
    1b5a:	ac 01       	movw	r20, r24
    1b5c:	60 e0       	ldi	r22, 0x00	; 0
    1b5e:	70 e0       	ldi	r23, 0x00	; 0
    1b60:	80 e8       	ldi	r24, 0x80	; 128
    1b62:	9f e3       	ldi	r25, 0x3F	; 63
    1b64:	0c 94 26 0c 	jmp	0x184c	; 0x184c <__divsf3>

00001b68 <__mulsf3>:
    1b68:	0e 94 c7 0d 	call	0x1b8e	; 0x1b8e <__mulsf3x>
    1b6c:	0c 94 6d 0d 	jmp	0x1ada	; 0x1ada <__fp_round>
    1b70:	0e 94 5f 0d 	call	0x1abe	; 0x1abe <__fp_pscA>
    1b74:	38 f0       	brcs	.+14     	; 0x1b84 <__mulsf3+0x1c>
    1b76:	0e 94 66 0d 	call	0x1acc	; 0x1acc <__fp_pscB>
    1b7a:	20 f0       	brcs	.+8      	; 0x1b84 <__mulsf3+0x1c>
    1b7c:	95 23       	and	r25, r21
    1b7e:	11 f0       	breq	.+4      	; 0x1b84 <__mulsf3+0x1c>
    1b80:	0c 94 2f 0d 	jmp	0x1a5e	; 0x1a5e <__fp_inf>
    1b84:	0c 94 35 0d 	jmp	0x1a6a	; 0x1a6a <__fp_nan>
    1b88:	11 24       	eor	r1, r1
    1b8a:	0c 94 a1 0d 	jmp	0x1b42	; 0x1b42 <__fp_szero>

00001b8e <__mulsf3x>:
    1b8e:	0e 94 7e 0d 	call	0x1afc	; 0x1afc <__fp_split3>
    1b92:	70 f3       	brcs	.-36     	; 0x1b70 <__mulsf3+0x8>

00001b94 <__mulsf3_pse>:
    1b94:	95 9f       	mul	r25, r21
    1b96:	c1 f3       	breq	.-16     	; 0x1b88 <__mulsf3+0x20>
    1b98:	95 0f       	add	r25, r21
    1b9a:	50 e0       	ldi	r21, 0x00	; 0
    1b9c:	55 1f       	adc	r21, r21
    1b9e:	62 9f       	mul	r22, r18
    1ba0:	f0 01       	movw	r30, r0
    1ba2:	72 9f       	mul	r23, r18
    1ba4:	bb 27       	eor	r27, r27
    1ba6:	f0 0d       	add	r31, r0
    1ba8:	b1 1d       	adc	r27, r1
    1baa:	63 9f       	mul	r22, r19
    1bac:	aa 27       	eor	r26, r26
    1bae:	f0 0d       	add	r31, r0
    1bb0:	b1 1d       	adc	r27, r1
    1bb2:	aa 1f       	adc	r26, r26
    1bb4:	64 9f       	mul	r22, r20
    1bb6:	66 27       	eor	r22, r22
    1bb8:	b0 0d       	add	r27, r0
    1bba:	a1 1d       	adc	r26, r1
    1bbc:	66 1f       	adc	r22, r22
    1bbe:	82 9f       	mul	r24, r18
    1bc0:	22 27       	eor	r18, r18
    1bc2:	b0 0d       	add	r27, r0
    1bc4:	a1 1d       	adc	r26, r1
    1bc6:	62 1f       	adc	r22, r18
    1bc8:	73 9f       	mul	r23, r19
    1bca:	b0 0d       	add	r27, r0
    1bcc:	a1 1d       	adc	r26, r1
    1bce:	62 1f       	adc	r22, r18
    1bd0:	83 9f       	mul	r24, r19
    1bd2:	a0 0d       	add	r26, r0
    1bd4:	61 1d       	adc	r22, r1
    1bd6:	22 1f       	adc	r18, r18
    1bd8:	74 9f       	mul	r23, r20
    1bda:	33 27       	eor	r19, r19
    1bdc:	a0 0d       	add	r26, r0
    1bde:	61 1d       	adc	r22, r1
    1be0:	23 1f       	adc	r18, r19
    1be2:	84 9f       	mul	r24, r20
    1be4:	60 0d       	add	r22, r0
    1be6:	21 1d       	adc	r18, r1
    1be8:	82 2f       	mov	r24, r18
    1bea:	76 2f       	mov	r23, r22
    1bec:	6a 2f       	mov	r22, r26
    1bee:	11 24       	eor	r1, r1
    1bf0:	9f 57       	subi	r25, 0x7F	; 127
    1bf2:	50 40       	sbci	r21, 0x00	; 0
    1bf4:	9a f0       	brmi	.+38     	; 0x1c1c <__mulsf3_pse+0x88>
    1bf6:	f1 f0       	breq	.+60     	; 0x1c34 <__mulsf3_pse+0xa0>
    1bf8:	88 23       	and	r24, r24
    1bfa:	4a f0       	brmi	.+18     	; 0x1c0e <__mulsf3_pse+0x7a>
    1bfc:	ee 0f       	add	r30, r30
    1bfe:	ff 1f       	adc	r31, r31
    1c00:	bb 1f       	adc	r27, r27
    1c02:	66 1f       	adc	r22, r22
    1c04:	77 1f       	adc	r23, r23
    1c06:	88 1f       	adc	r24, r24
    1c08:	91 50       	subi	r25, 0x01	; 1
    1c0a:	50 40       	sbci	r21, 0x00	; 0
    1c0c:	a9 f7       	brne	.-22     	; 0x1bf8 <__mulsf3_pse+0x64>
    1c0e:	9e 3f       	cpi	r25, 0xFE	; 254
    1c10:	51 05       	cpc	r21, r1
    1c12:	80 f0       	brcs	.+32     	; 0x1c34 <__mulsf3_pse+0xa0>
    1c14:	0c 94 2f 0d 	jmp	0x1a5e	; 0x1a5e <__fp_inf>
    1c18:	0c 94 a1 0d 	jmp	0x1b42	; 0x1b42 <__fp_szero>
    1c1c:	5f 3f       	cpi	r21, 0xFF	; 255
    1c1e:	e4 f3       	brlt	.-8      	; 0x1c18 <__mulsf3_pse+0x84>
    1c20:	98 3e       	cpi	r25, 0xE8	; 232
    1c22:	d4 f3       	brlt	.-12     	; 0x1c18 <__mulsf3_pse+0x84>
    1c24:	86 95       	lsr	r24
    1c26:	77 95       	ror	r23
    1c28:	67 95       	ror	r22
    1c2a:	b7 95       	ror	r27
    1c2c:	f7 95       	ror	r31
    1c2e:	e7 95       	ror	r30
    1c30:	9f 5f       	subi	r25, 0xFF	; 255
    1c32:	c1 f7       	brne	.-16     	; 0x1c24 <__mulsf3_pse+0x90>
    1c34:	fe 2b       	or	r31, r30
    1c36:	88 0f       	add	r24, r24
    1c38:	91 1d       	adc	r25, r1
    1c3a:	96 95       	lsr	r25
    1c3c:	87 95       	ror	r24
    1c3e:	97 f9       	bld	r25, 7
    1c40:	08 95       	ret

00001c42 <square>:
    1c42:	9b 01       	movw	r18, r22
    1c44:	ac 01       	movw	r20, r24
    1c46:	0c 94 b4 0d 	jmp	0x1b68	; 0x1b68 <__mulsf3>

00001c4a <__divmodhi4>:
    1c4a:	97 fb       	bst	r25, 7
    1c4c:	07 2e       	mov	r0, r23
    1c4e:	16 f4       	brtc	.+4      	; 0x1c54 <__divmodhi4+0xa>
    1c50:	00 94       	com	r0
    1c52:	07 d0       	rcall	.+14     	; 0x1c62 <__divmodhi4_neg1>
    1c54:	77 fd       	sbrc	r23, 7
    1c56:	09 d0       	rcall	.+18     	; 0x1c6a <__divmodhi4_neg2>
    1c58:	0e 94 39 0e 	call	0x1c72	; 0x1c72 <__udivmodhi4>
    1c5c:	07 fc       	sbrc	r0, 7
    1c5e:	05 d0       	rcall	.+10     	; 0x1c6a <__divmodhi4_neg2>
    1c60:	3e f4       	brtc	.+14     	; 0x1c70 <__divmodhi4_exit>

00001c62 <__divmodhi4_neg1>:
    1c62:	90 95       	com	r25
    1c64:	81 95       	neg	r24
    1c66:	9f 4f       	sbci	r25, 0xFF	; 255
    1c68:	08 95       	ret

00001c6a <__divmodhi4_neg2>:
    1c6a:	70 95       	com	r23
    1c6c:	61 95       	neg	r22
    1c6e:	7f 4f       	sbci	r23, 0xFF	; 255

00001c70 <__divmodhi4_exit>:
    1c70:	08 95       	ret

00001c72 <__udivmodhi4>:
    1c72:	aa 1b       	sub	r26, r26
    1c74:	bb 1b       	sub	r27, r27
    1c76:	51 e1       	ldi	r21, 0x11	; 17
    1c78:	07 c0       	rjmp	.+14     	; 0x1c88 <__udivmodhi4_ep>

00001c7a <__udivmodhi4_loop>:
    1c7a:	aa 1f       	adc	r26, r26
    1c7c:	bb 1f       	adc	r27, r27
    1c7e:	a6 17       	cp	r26, r22
    1c80:	b7 07       	cpc	r27, r23
    1c82:	10 f0       	brcs	.+4      	; 0x1c88 <__udivmodhi4_ep>
    1c84:	a6 1b       	sub	r26, r22
    1c86:	b7 0b       	sbc	r27, r23

00001c88 <__udivmodhi4_ep>:
    1c88:	88 1f       	adc	r24, r24
    1c8a:	99 1f       	adc	r25, r25
    1c8c:	5a 95       	dec	r21
    1c8e:	a9 f7       	brne	.-22     	; 0x1c7a <__udivmodhi4_loop>
    1c90:	80 95       	com	r24
    1c92:	90 95       	com	r25
    1c94:	bc 01       	movw	r22, r24
    1c96:	cd 01       	movw	r24, r26
    1c98:	08 95       	ret

00001c9a <dtostrf>:
    1c9a:	ef 92       	push	r14
    1c9c:	0f 93       	push	r16
    1c9e:	1f 93       	push	r17
    1ca0:	cf 93       	push	r28
    1ca2:	df 93       	push	r29
    1ca4:	e8 01       	movw	r28, r16
    1ca6:	47 fd       	sbrc	r20, 7
    1ca8:	16 c0       	rjmp	.+44     	; 0x1cd6 <dtostrf+0x3c>
    1caa:	34 e0       	ldi	r19, 0x04	; 4
    1cac:	04 2e       	mov	r0, r20
    1cae:	00 0c       	add	r0, r0
    1cb0:	55 0b       	sbc	r21, r21
    1cb2:	57 ff       	sbrs	r21, 7
    1cb4:	03 c0       	rjmp	.+6      	; 0x1cbc <dtostrf+0x22>
    1cb6:	51 95       	neg	r21
    1cb8:	41 95       	neg	r20
    1cba:	51 09       	sbc	r21, r1
    1cbc:	e3 2e       	mov	r14, r19
    1cbe:	02 2f       	mov	r16, r18
    1cc0:	24 2f       	mov	r18, r20
    1cc2:	ae 01       	movw	r20, r28
    1cc4:	0e 94 76 0e 	call	0x1cec	; 0x1cec <dtoa_prf>
    1cc8:	ce 01       	movw	r24, r28
    1cca:	df 91       	pop	r29
    1ccc:	cf 91       	pop	r28
    1cce:	1f 91       	pop	r17
    1cd0:	0f 91       	pop	r16
    1cd2:	ef 90       	pop	r14
    1cd4:	08 95       	ret
    1cd6:	34 e1       	ldi	r19, 0x14	; 20
    1cd8:	e9 cf       	rjmp	.-46     	; 0x1cac <dtostrf+0x12>

00001cda <strcmp>:
    1cda:	fb 01       	movw	r30, r22
    1cdc:	dc 01       	movw	r26, r24
    1cde:	8d 91       	ld	r24, X+
    1ce0:	01 90       	ld	r0, Z+
    1ce2:	80 19       	sub	r24, r0
    1ce4:	01 10       	cpse	r0, r1
    1ce6:	d9 f3       	breq	.-10     	; 0x1cde <strcmp+0x4>
    1ce8:	99 0b       	sbc	r25, r25
    1cea:	08 95       	ret

00001cec <dtoa_prf>:
    1cec:	8f 92       	push	r8
    1cee:	9f 92       	push	r9
    1cf0:	af 92       	push	r10
    1cf2:	bf 92       	push	r11
    1cf4:	cf 92       	push	r12
    1cf6:	df 92       	push	r13
    1cf8:	ef 92       	push	r14
    1cfa:	ff 92       	push	r15
    1cfc:	0f 93       	push	r16
    1cfe:	1f 93       	push	r17
    1d00:	cf 93       	push	r28
    1d02:	df 93       	push	r29
    1d04:	cd b7       	in	r28, 0x3d	; 61
    1d06:	de b7       	in	r29, 0x3e	; 62
    1d08:	29 97       	sbiw	r28, 0x09	; 9
    1d0a:	0f b6       	in	r0, 0x3f	; 63
    1d0c:	f8 94       	cli
    1d0e:	de bf       	out	0x3e, r29	; 62
    1d10:	0f be       	out	0x3f, r0	; 63
    1d12:	cd bf       	out	0x3d, r28	; 61
    1d14:	6a 01       	movw	r12, r20
    1d16:	f2 2e       	mov	r15, r18
    1d18:	b0 2e       	mov	r11, r16
    1d1a:	2b e3       	ldi	r18, 0x3B	; 59
    1d1c:	20 17       	cp	r18, r16
    1d1e:	08 f4       	brcc	.+2      	; 0x1d22 <dtoa_prf+0x36>
    1d20:	5f c0       	rjmp	.+190    	; 0x1de0 <dtoa_prf+0xf4>
    1d22:	11 e0       	ldi	r17, 0x01	; 1
    1d24:	10 0f       	add	r17, r16
    1d26:	01 2f       	mov	r16, r17
    1d28:	27 e0       	ldi	r18, 0x07	; 7
    1d2a:	ae 01       	movw	r20, r28
    1d2c:	4f 5f       	subi	r20, 0xFF	; 255
    1d2e:	5f 4f       	sbci	r21, 0xFF	; 255
    1d30:	0e 94 f7 0f 	call	0x1fee	; 0x1fee <__ftoa_engine>
    1d34:	bc 01       	movw	r22, r24
    1d36:	39 81       	ldd	r19, Y+1	; 0x01
    1d38:	83 2f       	mov	r24, r19
    1d3a:	89 70       	andi	r24, 0x09	; 9
    1d3c:	81 30       	cpi	r24, 0x01	; 1
    1d3e:	09 f4       	brne	.+2      	; 0x1d42 <dtoa_prf+0x56>
    1d40:	51 c0       	rjmp	.+162    	; 0x1de4 <dtoa_prf+0xf8>
    1d42:	e1 fc       	sbrc	r14, 1
    1d44:	51 c0       	rjmp	.+162    	; 0x1de8 <dtoa_prf+0xfc>
    1d46:	9e 2d       	mov	r25, r14
    1d48:	91 70       	andi	r25, 0x01	; 1
    1d4a:	e0 fc       	sbrc	r14, 0
    1d4c:	90 e2       	ldi	r25, 0x20	; 32
    1d4e:	ae 2d       	mov	r26, r14
    1d50:	a0 71       	andi	r26, 0x10	; 16
    1d52:	83 2f       	mov	r24, r19
    1d54:	88 70       	andi	r24, 0x08	; 8
    1d56:	33 ff       	sbrs	r19, 3
    1d58:	5a c0       	rjmp	.+180    	; 0x1e0e <dtoa_prf+0x122>
    1d5a:	91 11       	cpse	r25, r1
    1d5c:	47 c0       	rjmp	.+142    	; 0x1dec <dtoa_prf+0x100>
    1d5e:	83 e0       	ldi	r24, 0x03	; 3
    1d60:	8f 15       	cp	r24, r15
    1d62:	08 f0       	brcs	.+2      	; 0x1d66 <dtoa_prf+0x7a>
    1d64:	45 c0       	rjmp	.+138    	; 0x1df0 <dtoa_prf+0x104>
    1d66:	f8 1a       	sub	r15, r24
    1d68:	a1 11       	cpse	r26, r1
    1d6a:	08 c0       	rjmp	.+16     	; 0x1d7c <dtoa_prf+0x90>
    1d6c:	f6 01       	movw	r30, r12
    1d6e:	8f 2d       	mov	r24, r15
    1d70:	20 e2       	ldi	r18, 0x20	; 32
    1d72:	81 11       	cpse	r24, r1
    1d74:	3f c0       	rjmp	.+126    	; 0x1df4 <dtoa_prf+0x108>
    1d76:	cf 0c       	add	r12, r15
    1d78:	d1 1c       	adc	r13, r1
    1d7a:	f1 2c       	mov	r15, r1
    1d7c:	99 23       	and	r25, r25
    1d7e:	29 f0       	breq	.+10     	; 0x1d8a <dtoa_prf+0x9e>
    1d80:	d6 01       	movw	r26, r12
    1d82:	9c 93       	st	X, r25
    1d84:	f6 01       	movw	r30, r12
    1d86:	31 96       	adiw	r30, 0x01	; 1
    1d88:	6f 01       	movw	r12, r30
    1d8a:	c6 01       	movw	r24, r12
    1d8c:	03 96       	adiw	r24, 0x03	; 3
    1d8e:	e2 fe       	sbrs	r14, 2
    1d90:	34 c0       	rjmp	.+104    	; 0x1dfa <dtoa_prf+0x10e>
    1d92:	2e e4       	ldi	r18, 0x4E	; 78
    1d94:	d6 01       	movw	r26, r12
    1d96:	2c 93       	st	X, r18
    1d98:	31 e4       	ldi	r19, 0x41	; 65
    1d9a:	11 96       	adiw	r26, 0x01	; 1
    1d9c:	3c 93       	st	X, r19
    1d9e:	11 97       	sbiw	r26, 0x01	; 1
    1da0:	12 96       	adiw	r26, 0x02	; 2
    1da2:	2c 93       	st	X, r18
    1da4:	fc 01       	movw	r30, r24
    1da6:	2f 2d       	mov	r18, r15
    1da8:	30 e2       	ldi	r19, 0x20	; 32
    1daa:	21 11       	cpse	r18, r1
    1dac:	2d c0       	rjmp	.+90     	; 0x1e08 <dtoa_prf+0x11c>
    1dae:	8f 0d       	add	r24, r15
    1db0:	91 1d       	adc	r25, r1
    1db2:	dc 01       	movw	r26, r24
    1db4:	1c 92       	st	X, r1
    1db6:	8e ef       	ldi	r24, 0xFE	; 254
    1db8:	9f ef       	ldi	r25, 0xFF	; 255
    1dba:	29 96       	adiw	r28, 0x09	; 9
    1dbc:	0f b6       	in	r0, 0x3f	; 63
    1dbe:	f8 94       	cli
    1dc0:	de bf       	out	0x3e, r29	; 62
    1dc2:	0f be       	out	0x3f, r0	; 63
    1dc4:	cd bf       	out	0x3d, r28	; 61
    1dc6:	df 91       	pop	r29
    1dc8:	cf 91       	pop	r28
    1dca:	1f 91       	pop	r17
    1dcc:	0f 91       	pop	r16
    1dce:	ff 90       	pop	r15
    1dd0:	ef 90       	pop	r14
    1dd2:	df 90       	pop	r13
    1dd4:	cf 90       	pop	r12
    1dd6:	bf 90       	pop	r11
    1dd8:	af 90       	pop	r10
    1dda:	9f 90       	pop	r9
    1ddc:	8f 90       	pop	r8
    1dde:	08 95       	ret
    1de0:	1c e3       	ldi	r17, 0x3C	; 60
    1de2:	a1 cf       	rjmp	.-190    	; 0x1d26 <dtoa_prf+0x3a>
    1de4:	9d e2       	ldi	r25, 0x2D	; 45
    1de6:	b3 cf       	rjmp	.-154    	; 0x1d4e <dtoa_prf+0x62>
    1de8:	9b e2       	ldi	r25, 0x2B	; 43
    1dea:	b1 cf       	rjmp	.-158    	; 0x1d4e <dtoa_prf+0x62>
    1dec:	84 e0       	ldi	r24, 0x04	; 4
    1dee:	b8 cf       	rjmp	.-144    	; 0x1d60 <dtoa_prf+0x74>
    1df0:	f1 2c       	mov	r15, r1
    1df2:	ba cf       	rjmp	.-140    	; 0x1d68 <dtoa_prf+0x7c>
    1df4:	21 93       	st	Z+, r18
    1df6:	81 50       	subi	r24, 0x01	; 1
    1df8:	bc cf       	rjmp	.-136    	; 0x1d72 <dtoa_prf+0x86>
    1dfa:	2e e6       	ldi	r18, 0x6E	; 110
    1dfc:	f6 01       	movw	r30, r12
    1dfe:	20 83       	st	Z, r18
    1e00:	31 e6       	ldi	r19, 0x61	; 97
    1e02:	31 83       	std	Z+1, r19	; 0x01
    1e04:	22 83       	std	Z+2, r18	; 0x02
    1e06:	ce cf       	rjmp	.-100    	; 0x1da4 <dtoa_prf+0xb8>
    1e08:	31 93       	st	Z+, r19
    1e0a:	21 50       	subi	r18, 0x01	; 1
    1e0c:	ce cf       	rjmp	.-100    	; 0x1daa <dtoa_prf+0xbe>
    1e0e:	23 2f       	mov	r18, r19
    1e10:	24 70       	andi	r18, 0x04	; 4
    1e12:	32 ff       	sbrs	r19, 2
    1e14:	41 c0       	rjmp	.+130    	; 0x1e98 <dtoa_prf+0x1ac>
    1e16:	91 11       	cpse	r25, r1
    1e18:	2f c0       	rjmp	.+94     	; 0x1e78 <dtoa_prf+0x18c>
    1e1a:	23 e0       	ldi	r18, 0x03	; 3
    1e1c:	2f 15       	cp	r18, r15
    1e1e:	10 f4       	brcc	.+4      	; 0x1e24 <dtoa_prf+0x138>
    1e20:	8f 2d       	mov	r24, r15
    1e22:	82 1b       	sub	r24, r18
    1e24:	a1 11       	cpse	r26, r1
    1e26:	08 c0       	rjmp	.+16     	; 0x1e38 <dtoa_prf+0x14c>
    1e28:	f6 01       	movw	r30, r12
    1e2a:	28 2f       	mov	r18, r24
    1e2c:	30 e2       	ldi	r19, 0x20	; 32
    1e2e:	21 11       	cpse	r18, r1
    1e30:	25 c0       	rjmp	.+74     	; 0x1e7c <dtoa_prf+0x190>
    1e32:	c8 0e       	add	r12, r24
    1e34:	d1 1c       	adc	r13, r1
    1e36:	80 e0       	ldi	r24, 0x00	; 0
    1e38:	99 23       	and	r25, r25
    1e3a:	31 f0       	breq	.+12     	; 0x1e48 <dtoa_prf+0x15c>
    1e3c:	f6 01       	movw	r30, r12
    1e3e:	90 83       	st	Z, r25
    1e40:	96 01       	movw	r18, r12
    1e42:	2f 5f       	subi	r18, 0xFF	; 255
    1e44:	3f 4f       	sbci	r19, 0xFF	; 255
    1e46:	69 01       	movw	r12, r18
    1e48:	96 01       	movw	r18, r12
    1e4a:	2d 5f       	subi	r18, 0xFD	; 253
    1e4c:	3f 4f       	sbci	r19, 0xFF	; 255
    1e4e:	e2 fe       	sbrs	r14, 2
    1e50:	18 c0       	rjmp	.+48     	; 0x1e82 <dtoa_prf+0x196>
    1e52:	99 e4       	ldi	r25, 0x49	; 73
    1e54:	d6 01       	movw	r26, r12
    1e56:	9c 93       	st	X, r25
    1e58:	9e e4       	ldi	r25, 0x4E	; 78
    1e5a:	11 96       	adiw	r26, 0x01	; 1
    1e5c:	9c 93       	st	X, r25
    1e5e:	11 97       	sbiw	r26, 0x01	; 1
    1e60:	96 e4       	ldi	r25, 0x46	; 70
    1e62:	12 96       	adiw	r26, 0x02	; 2
    1e64:	9c 93       	st	X, r25
    1e66:	f9 01       	movw	r30, r18
    1e68:	98 2f       	mov	r25, r24
    1e6a:	40 e2       	ldi	r20, 0x20	; 32
    1e6c:	91 11       	cpse	r25, r1
    1e6e:	11 c0       	rjmp	.+34     	; 0x1e92 <dtoa_prf+0x1a6>
    1e70:	28 0f       	add	r18, r24
    1e72:	31 1d       	adc	r19, r1
    1e74:	d9 01       	movw	r26, r18
    1e76:	9e cf       	rjmp	.-196    	; 0x1db4 <dtoa_prf+0xc8>
    1e78:	24 e0       	ldi	r18, 0x04	; 4
    1e7a:	d0 cf       	rjmp	.-96     	; 0x1e1c <dtoa_prf+0x130>
    1e7c:	31 93       	st	Z+, r19
    1e7e:	21 50       	subi	r18, 0x01	; 1
    1e80:	d6 cf       	rjmp	.-84     	; 0x1e2e <dtoa_prf+0x142>
    1e82:	99 e6       	ldi	r25, 0x69	; 105
    1e84:	f6 01       	movw	r30, r12
    1e86:	90 83       	st	Z, r25
    1e88:	9e e6       	ldi	r25, 0x6E	; 110
    1e8a:	91 83       	std	Z+1, r25	; 0x01
    1e8c:	96 e6       	ldi	r25, 0x66	; 102
    1e8e:	92 83       	std	Z+2, r25	; 0x02
    1e90:	ea cf       	rjmp	.-44     	; 0x1e66 <dtoa_prf+0x17a>
    1e92:	41 93       	st	Z+, r20
    1e94:	91 50       	subi	r25, 0x01	; 1
    1e96:	ea cf       	rjmp	.-44     	; 0x1e6c <dtoa_prf+0x180>
    1e98:	41 e0       	ldi	r20, 0x01	; 1
    1e9a:	50 e0       	ldi	r21, 0x00	; 0
    1e9c:	91 11       	cpse	r25, r1
    1e9e:	02 c0       	rjmp	.+4      	; 0x1ea4 <dtoa_prf+0x1b8>
    1ea0:	40 e0       	ldi	r20, 0x00	; 0
    1ea2:	50 e0       	ldi	r21, 0x00	; 0
    1ea4:	16 16       	cp	r1, r22
    1ea6:	17 06       	cpc	r1, r23
    1ea8:	0c f0       	brlt	.+2      	; 0x1eac <dtoa_prf+0x1c0>
    1eaa:	75 c0       	rjmp	.+234    	; 0x1f96 <dtoa_prf+0x2aa>
    1eac:	fb 01       	movw	r30, r22
    1eae:	31 96       	adiw	r30, 0x01	; 1
    1eb0:	e4 0f       	add	r30, r20
    1eb2:	f5 1f       	adc	r31, r21
    1eb4:	bb 20       	and	r11, r11
    1eb6:	09 f4       	brne	.+2      	; 0x1eba <dtoa_prf+0x1ce>
    1eb8:	71 c0       	rjmp	.+226    	; 0x1f9c <dtoa_prf+0x2b0>
    1eba:	4b 2d       	mov	r20, r11
    1ebc:	50 e0       	ldi	r21, 0x00	; 0
    1ebe:	4f 5f       	subi	r20, 0xFF	; 255
    1ec0:	5f 4f       	sbci	r21, 0xFF	; 255
    1ec2:	4e 0f       	add	r20, r30
    1ec4:	5f 1f       	adc	r21, r31
    1ec6:	ef 2d       	mov	r30, r15
    1ec8:	f0 e0       	ldi	r31, 0x00	; 0
    1eca:	4e 17       	cp	r20, r30
    1ecc:	5f 07       	cpc	r21, r31
    1ece:	14 f4       	brge	.+4      	; 0x1ed4 <dtoa_prf+0x1e8>
    1ed0:	2f 2d       	mov	r18, r15
    1ed2:	24 1b       	sub	r18, r20
    1ed4:	8e 2d       	mov	r24, r14
    1ed6:	88 71       	andi	r24, 0x18	; 24
    1ed8:	41 f4       	brne	.+16     	; 0x1eea <dtoa_prf+0x1fe>
    1eda:	f6 01       	movw	r30, r12
    1edc:	82 2f       	mov	r24, r18
    1ede:	40 e2       	ldi	r20, 0x20	; 32
    1ee0:	81 11       	cpse	r24, r1
    1ee2:	5f c0       	rjmp	.+190    	; 0x1fa2 <dtoa_prf+0x2b6>
    1ee4:	c2 0e       	add	r12, r18
    1ee6:	d1 1c       	adc	r13, r1
    1ee8:	20 e0       	ldi	r18, 0x00	; 0
    1eea:	99 23       	and	r25, r25
    1eec:	29 f0       	breq	.+10     	; 0x1ef8 <dtoa_prf+0x20c>
    1eee:	f6 01       	movw	r30, r12
    1ef0:	90 83       	st	Z, r25
    1ef2:	c6 01       	movw	r24, r12
    1ef4:	01 96       	adiw	r24, 0x01	; 1
    1ef6:	6c 01       	movw	r12, r24
    1ef8:	a1 11       	cpse	r26, r1
    1efa:	08 c0       	rjmp	.+16     	; 0x1f0c <dtoa_prf+0x220>
    1efc:	f6 01       	movw	r30, r12
    1efe:	82 2f       	mov	r24, r18
    1f00:	90 e3       	ldi	r25, 0x30	; 48
    1f02:	81 11       	cpse	r24, r1
    1f04:	51 c0       	rjmp	.+162    	; 0x1fa8 <dtoa_prf+0x2bc>
    1f06:	c2 0e       	add	r12, r18
    1f08:	d1 1c       	adc	r13, r1
    1f0a:	20 e0       	ldi	r18, 0x00	; 0
    1f0c:	01 2f       	mov	r16, r17
    1f0e:	06 0f       	add	r16, r22
    1f10:	9a 81       	ldd	r25, Y+2	; 0x02
    1f12:	a3 2f       	mov	r26, r19
    1f14:	a0 71       	andi	r26, 0x10	; 16
    1f16:	aa 2e       	mov	r10, r26
    1f18:	34 ff       	sbrs	r19, 4
    1f1a:	03 c0       	rjmp	.+6      	; 0x1f22 <dtoa_prf+0x236>
    1f1c:	91 33       	cpi	r25, 0x31	; 49
    1f1e:	09 f4       	brne	.+2      	; 0x1f22 <dtoa_prf+0x236>
    1f20:	01 50       	subi	r16, 0x01	; 1
    1f22:	10 16       	cp	r1, r16
    1f24:	0c f0       	brlt	.+2      	; 0x1f28 <dtoa_prf+0x23c>
    1f26:	43 c0       	rjmp	.+134    	; 0x1fae <dtoa_prf+0x2c2>
    1f28:	09 30       	cpi	r16, 0x09	; 9
    1f2a:	08 f0       	brcs	.+2      	; 0x1f2e <dtoa_prf+0x242>
    1f2c:	08 e0       	ldi	r16, 0x08	; 8
    1f2e:	ab 01       	movw	r20, r22
    1f30:	77 ff       	sbrs	r23, 7
    1f32:	02 c0       	rjmp	.+4      	; 0x1f38 <dtoa_prf+0x24c>
    1f34:	40 e0       	ldi	r20, 0x00	; 0
    1f36:	50 e0       	ldi	r21, 0x00	; 0
    1f38:	fb 01       	movw	r30, r22
    1f3a:	31 96       	adiw	r30, 0x01	; 1
    1f3c:	e4 1b       	sub	r30, r20
    1f3e:	f5 0b       	sbc	r31, r21
    1f40:	a1 e0       	ldi	r26, 0x01	; 1
    1f42:	b0 e0       	ldi	r27, 0x00	; 0
    1f44:	ac 0f       	add	r26, r28
    1f46:	bd 1f       	adc	r27, r29
    1f48:	ea 0f       	add	r30, r26
    1f4a:	fb 1f       	adc	r31, r27
    1f4c:	3e e2       	ldi	r19, 0x2E	; 46
    1f4e:	4b 01       	movw	r8, r22
    1f50:	80 1a       	sub	r8, r16
    1f52:	91 08       	sbc	r9, r1
    1f54:	0b 2d       	mov	r16, r11
    1f56:	10 e0       	ldi	r17, 0x00	; 0
    1f58:	11 95       	neg	r17
    1f5a:	01 95       	neg	r16
    1f5c:	11 09       	sbc	r17, r1
    1f5e:	4f 3f       	cpi	r20, 0xFF	; 255
    1f60:	bf ef       	ldi	r27, 0xFF	; 255
    1f62:	5b 07       	cpc	r21, r27
    1f64:	21 f4       	brne	.+8      	; 0x1f6e <dtoa_prf+0x282>
    1f66:	d6 01       	movw	r26, r12
    1f68:	3c 93       	st	X, r19
    1f6a:	11 96       	adiw	r26, 0x01	; 1
    1f6c:	6d 01       	movw	r12, r26
    1f6e:	64 17       	cp	r22, r20
    1f70:	75 07       	cpc	r23, r21
    1f72:	fc f0       	brlt	.+62     	; 0x1fb2 <dtoa_prf+0x2c6>
    1f74:	84 16       	cp	r8, r20
    1f76:	95 06       	cpc	r9, r21
    1f78:	e4 f4       	brge	.+56     	; 0x1fb2 <dtoa_prf+0x2c6>
    1f7a:	80 81       	ld	r24, Z
    1f7c:	41 50       	subi	r20, 0x01	; 1
    1f7e:	51 09       	sbc	r21, r1
    1f80:	31 96       	adiw	r30, 0x01	; 1
    1f82:	d6 01       	movw	r26, r12
    1f84:	11 96       	adiw	r26, 0x01	; 1
    1f86:	7d 01       	movw	r14, r26
    1f88:	40 17       	cp	r20, r16
    1f8a:	51 07       	cpc	r21, r17
    1f8c:	a4 f0       	brlt	.+40     	; 0x1fb6 <dtoa_prf+0x2ca>
    1f8e:	d6 01       	movw	r26, r12
    1f90:	8c 93       	st	X, r24
    1f92:	67 01       	movw	r12, r14
    1f94:	e4 cf       	rjmp	.-56     	; 0x1f5e <dtoa_prf+0x272>
    1f96:	e1 e0       	ldi	r30, 0x01	; 1
    1f98:	f0 e0       	ldi	r31, 0x00	; 0
    1f9a:	8a cf       	rjmp	.-236    	; 0x1eb0 <dtoa_prf+0x1c4>
    1f9c:	40 e0       	ldi	r20, 0x00	; 0
    1f9e:	50 e0       	ldi	r21, 0x00	; 0
    1fa0:	90 cf       	rjmp	.-224    	; 0x1ec2 <dtoa_prf+0x1d6>
    1fa2:	41 93       	st	Z+, r20
    1fa4:	81 50       	subi	r24, 0x01	; 1
    1fa6:	9c cf       	rjmp	.-200    	; 0x1ee0 <dtoa_prf+0x1f4>
    1fa8:	91 93       	st	Z+, r25
    1faa:	81 50       	subi	r24, 0x01	; 1
    1fac:	aa cf       	rjmp	.-172    	; 0x1f02 <dtoa_prf+0x216>
    1fae:	01 e0       	ldi	r16, 0x01	; 1
    1fb0:	be cf       	rjmp	.-132    	; 0x1f2e <dtoa_prf+0x242>
    1fb2:	80 e3       	ldi	r24, 0x30	; 48
    1fb4:	e3 cf       	rjmp	.-58     	; 0x1f7c <dtoa_prf+0x290>
    1fb6:	64 17       	cp	r22, r20
    1fb8:	75 07       	cpc	r23, r21
    1fba:	31 f4       	brne	.+12     	; 0x1fc8 <dtoa_prf+0x2dc>
    1fbc:	96 33       	cpi	r25, 0x36	; 54
    1fbe:	90 f4       	brcc	.+36     	; 0x1fe4 <dtoa_prf+0x2f8>
    1fc0:	95 33       	cpi	r25, 0x35	; 53
    1fc2:	11 f4       	brne	.+4      	; 0x1fc8 <dtoa_prf+0x2dc>
    1fc4:	aa 20       	and	r10, r10
    1fc6:	71 f0       	breq	.+28     	; 0x1fe4 <dtoa_prf+0x2f8>
    1fc8:	f6 01       	movw	r30, r12
    1fca:	80 83       	st	Z, r24
    1fcc:	f7 01       	movw	r30, r14
    1fce:	82 2f       	mov	r24, r18
    1fd0:	90 e2       	ldi	r25, 0x20	; 32
    1fd2:	81 11       	cpse	r24, r1
    1fd4:	09 c0       	rjmp	.+18     	; 0x1fe8 <dtoa_prf+0x2fc>
    1fd6:	f7 01       	movw	r30, r14
    1fd8:	e2 0f       	add	r30, r18
    1fda:	f1 1d       	adc	r31, r1
    1fdc:	10 82       	st	Z, r1
    1fde:	80 e0       	ldi	r24, 0x00	; 0
    1fe0:	90 e0       	ldi	r25, 0x00	; 0
    1fe2:	eb ce       	rjmp	.-554    	; 0x1dba <dtoa_prf+0xce>
    1fe4:	81 e3       	ldi	r24, 0x31	; 49
    1fe6:	f0 cf       	rjmp	.-32     	; 0x1fc8 <dtoa_prf+0x2dc>
    1fe8:	91 93       	st	Z+, r25
    1fea:	81 50       	subi	r24, 0x01	; 1
    1fec:	f2 cf       	rjmp	.-28     	; 0x1fd2 <dtoa_prf+0x2e6>

00001fee <__ftoa_engine>:
    1fee:	28 30       	cpi	r18, 0x08	; 8
    1ff0:	08 f0       	brcs	.+2      	; 0x1ff4 <__ftoa_engine+0x6>
    1ff2:	27 e0       	ldi	r18, 0x07	; 7
    1ff4:	33 27       	eor	r19, r19
    1ff6:	da 01       	movw	r26, r20
    1ff8:	99 0f       	add	r25, r25
    1ffa:	31 1d       	adc	r19, r1
    1ffc:	87 fd       	sbrc	r24, 7
    1ffe:	91 60       	ori	r25, 0x01	; 1
    2000:	00 96       	adiw	r24, 0x00	; 0
    2002:	61 05       	cpc	r22, r1
    2004:	71 05       	cpc	r23, r1
    2006:	39 f4       	brne	.+14     	; 0x2016 <__ftoa_engine+0x28>
    2008:	32 60       	ori	r19, 0x02	; 2
    200a:	2e 5f       	subi	r18, 0xFE	; 254
    200c:	3d 93       	st	X+, r19
    200e:	30 e3       	ldi	r19, 0x30	; 48
    2010:	2a 95       	dec	r18
    2012:	e1 f7       	brne	.-8      	; 0x200c <__ftoa_engine+0x1e>
    2014:	08 95       	ret
    2016:	9f 3f       	cpi	r25, 0xFF	; 255
    2018:	30 f0       	brcs	.+12     	; 0x2026 <__ftoa_engine+0x38>
    201a:	80 38       	cpi	r24, 0x80	; 128
    201c:	71 05       	cpc	r23, r1
    201e:	61 05       	cpc	r22, r1
    2020:	09 f0       	breq	.+2      	; 0x2024 <__ftoa_engine+0x36>
    2022:	3c 5f       	subi	r19, 0xFC	; 252
    2024:	3c 5f       	subi	r19, 0xFC	; 252
    2026:	3d 93       	st	X+, r19
    2028:	91 30       	cpi	r25, 0x01	; 1
    202a:	08 f0       	brcs	.+2      	; 0x202e <__ftoa_engine+0x40>
    202c:	80 68       	ori	r24, 0x80	; 128
    202e:	91 1d       	adc	r25, r1
    2030:	df 93       	push	r29
    2032:	cf 93       	push	r28
    2034:	1f 93       	push	r17
    2036:	0f 93       	push	r16
    2038:	ff 92       	push	r15
    203a:	ef 92       	push	r14
    203c:	19 2f       	mov	r17, r25
    203e:	98 7f       	andi	r25, 0xF8	; 248
    2040:	96 95       	lsr	r25
    2042:	e9 2f       	mov	r30, r25
    2044:	96 95       	lsr	r25
    2046:	96 95       	lsr	r25
    2048:	e9 0f       	add	r30, r25
    204a:	ff 27       	eor	r31, r31
    204c:	ec 5e       	subi	r30, 0xEC	; 236
    204e:	fe 4f       	sbci	r31, 0xFE	; 254
    2050:	99 27       	eor	r25, r25
    2052:	33 27       	eor	r19, r19
    2054:	ee 24       	eor	r14, r14
    2056:	ff 24       	eor	r15, r15
    2058:	a7 01       	movw	r20, r14
    205a:	e7 01       	movw	r28, r14
    205c:	05 90       	lpm	r0, Z+
    205e:	08 94       	sec
    2060:	07 94       	ror	r0
    2062:	28 f4       	brcc	.+10     	; 0x206e <__ftoa_engine+0x80>
    2064:	36 0f       	add	r19, r22
    2066:	e7 1e       	adc	r14, r23
    2068:	f8 1e       	adc	r15, r24
    206a:	49 1f       	adc	r20, r25
    206c:	51 1d       	adc	r21, r1
    206e:	66 0f       	add	r22, r22
    2070:	77 1f       	adc	r23, r23
    2072:	88 1f       	adc	r24, r24
    2074:	99 1f       	adc	r25, r25
    2076:	06 94       	lsr	r0
    2078:	a1 f7       	brne	.-24     	; 0x2062 <__ftoa_engine+0x74>
    207a:	05 90       	lpm	r0, Z+
    207c:	07 94       	ror	r0
    207e:	28 f4       	brcc	.+10     	; 0x208a <__ftoa_engine+0x9c>
    2080:	e7 0e       	add	r14, r23
    2082:	f8 1e       	adc	r15, r24
    2084:	49 1f       	adc	r20, r25
    2086:	56 1f       	adc	r21, r22
    2088:	c1 1d       	adc	r28, r1
    208a:	77 0f       	add	r23, r23
    208c:	88 1f       	adc	r24, r24
    208e:	99 1f       	adc	r25, r25
    2090:	66 1f       	adc	r22, r22
    2092:	06 94       	lsr	r0
    2094:	a1 f7       	brne	.-24     	; 0x207e <__ftoa_engine+0x90>
    2096:	05 90       	lpm	r0, Z+
    2098:	07 94       	ror	r0
    209a:	28 f4       	brcc	.+10     	; 0x20a6 <__ftoa_engine+0xb8>
    209c:	f8 0e       	add	r15, r24
    209e:	49 1f       	adc	r20, r25
    20a0:	56 1f       	adc	r21, r22
    20a2:	c7 1f       	adc	r28, r23
    20a4:	d1 1d       	adc	r29, r1
    20a6:	88 0f       	add	r24, r24
    20a8:	99 1f       	adc	r25, r25
    20aa:	66 1f       	adc	r22, r22
    20ac:	77 1f       	adc	r23, r23
    20ae:	06 94       	lsr	r0
    20b0:	a1 f7       	brne	.-24     	; 0x209a <__ftoa_engine+0xac>
    20b2:	05 90       	lpm	r0, Z+
    20b4:	07 94       	ror	r0
    20b6:	20 f4       	brcc	.+8      	; 0x20c0 <__ftoa_engine+0xd2>
    20b8:	49 0f       	add	r20, r25
    20ba:	56 1f       	adc	r21, r22
    20bc:	c7 1f       	adc	r28, r23
    20be:	d8 1f       	adc	r29, r24
    20c0:	99 0f       	add	r25, r25
    20c2:	66 1f       	adc	r22, r22
    20c4:	77 1f       	adc	r23, r23
    20c6:	88 1f       	adc	r24, r24
    20c8:	06 94       	lsr	r0
    20ca:	a9 f7       	brne	.-22     	; 0x20b6 <__ftoa_engine+0xc8>
    20cc:	84 91       	lpm	r24, Z
    20ce:	10 95       	com	r17
    20d0:	17 70       	andi	r17, 0x07	; 7
    20d2:	41 f0       	breq	.+16     	; 0x20e4 <__ftoa_engine+0xf6>
    20d4:	d6 95       	lsr	r29
    20d6:	c7 95       	ror	r28
    20d8:	57 95       	ror	r21
    20da:	47 95       	ror	r20
    20dc:	f7 94       	ror	r15
    20de:	e7 94       	ror	r14
    20e0:	1a 95       	dec	r17
    20e2:	c1 f7       	brne	.-16     	; 0x20d4 <__ftoa_engine+0xe6>
    20e4:	ea eb       	ldi	r30, 0xBA	; 186
    20e6:	f0 e0       	ldi	r31, 0x00	; 0
    20e8:	68 94       	set
    20ea:	15 90       	lpm	r1, Z+
    20ec:	15 91       	lpm	r17, Z+
    20ee:	35 91       	lpm	r19, Z+
    20f0:	65 91       	lpm	r22, Z+
    20f2:	95 91       	lpm	r25, Z+
    20f4:	05 90       	lpm	r0, Z+
    20f6:	7f e2       	ldi	r23, 0x2F	; 47
    20f8:	73 95       	inc	r23
    20fa:	e1 18       	sub	r14, r1
    20fc:	f1 0a       	sbc	r15, r17
    20fe:	43 0b       	sbc	r20, r19
    2100:	56 0b       	sbc	r21, r22
    2102:	c9 0b       	sbc	r28, r25
    2104:	d0 09       	sbc	r29, r0
    2106:	c0 f7       	brcc	.-16     	; 0x20f8 <__ftoa_engine+0x10a>
    2108:	e1 0c       	add	r14, r1
    210a:	f1 1e       	adc	r15, r17
    210c:	43 1f       	adc	r20, r19
    210e:	56 1f       	adc	r21, r22
    2110:	c9 1f       	adc	r28, r25
    2112:	d0 1d       	adc	r29, r0
    2114:	7e f4       	brtc	.+30     	; 0x2134 <__ftoa_engine+0x146>
    2116:	70 33       	cpi	r23, 0x30	; 48
    2118:	11 f4       	brne	.+4      	; 0x211e <__ftoa_engine+0x130>
    211a:	8a 95       	dec	r24
    211c:	e6 cf       	rjmp	.-52     	; 0x20ea <__ftoa_engine+0xfc>
    211e:	e8 94       	clt
    2120:	01 50       	subi	r16, 0x01	; 1
    2122:	30 f0       	brcs	.+12     	; 0x2130 <__ftoa_engine+0x142>
    2124:	08 0f       	add	r16, r24
    2126:	0a f4       	brpl	.+2      	; 0x212a <__ftoa_engine+0x13c>
    2128:	00 27       	eor	r16, r16
    212a:	02 17       	cp	r16, r18
    212c:	08 f4       	brcc	.+2      	; 0x2130 <__ftoa_engine+0x142>
    212e:	20 2f       	mov	r18, r16
    2130:	23 95       	inc	r18
    2132:	02 2f       	mov	r16, r18
    2134:	7a 33       	cpi	r23, 0x3A	; 58
    2136:	28 f0       	brcs	.+10     	; 0x2142 <__ftoa_engine+0x154>
    2138:	79 e3       	ldi	r23, 0x39	; 57
    213a:	7d 93       	st	X+, r23
    213c:	2a 95       	dec	r18
    213e:	e9 f7       	brne	.-6      	; 0x213a <__ftoa_engine+0x14c>
    2140:	10 c0       	rjmp	.+32     	; 0x2162 <__ftoa_engine+0x174>
    2142:	7d 93       	st	X+, r23
    2144:	2a 95       	dec	r18
    2146:	89 f6       	brne	.-94     	; 0x20ea <__ftoa_engine+0xfc>
    2148:	06 94       	lsr	r0
    214a:	97 95       	ror	r25
    214c:	67 95       	ror	r22
    214e:	37 95       	ror	r19
    2150:	17 95       	ror	r17
    2152:	17 94       	ror	r1
    2154:	e1 18       	sub	r14, r1
    2156:	f1 0a       	sbc	r15, r17
    2158:	43 0b       	sbc	r20, r19
    215a:	56 0b       	sbc	r21, r22
    215c:	c9 0b       	sbc	r28, r25
    215e:	d0 09       	sbc	r29, r0
    2160:	98 f0       	brcs	.+38     	; 0x2188 <__ftoa_engine+0x19a>
    2162:	23 95       	inc	r18
    2164:	7e 91       	ld	r23, -X
    2166:	73 95       	inc	r23
    2168:	7a 33       	cpi	r23, 0x3A	; 58
    216a:	08 f0       	brcs	.+2      	; 0x216e <__ftoa_engine+0x180>
    216c:	70 e3       	ldi	r23, 0x30	; 48
    216e:	7c 93       	st	X, r23
    2170:	20 13       	cpse	r18, r16
    2172:	b8 f7       	brcc	.-18     	; 0x2162 <__ftoa_engine+0x174>
    2174:	7e 91       	ld	r23, -X
    2176:	70 61       	ori	r23, 0x10	; 16
    2178:	7d 93       	st	X+, r23
    217a:	30 f0       	brcs	.+12     	; 0x2188 <__ftoa_engine+0x19a>
    217c:	83 95       	inc	r24
    217e:	71 e3       	ldi	r23, 0x31	; 49
    2180:	7d 93       	st	X+, r23
    2182:	70 e3       	ldi	r23, 0x30	; 48
    2184:	2a 95       	dec	r18
    2186:	e1 f7       	brne	.-8      	; 0x2180 <__ftoa_engine+0x192>
    2188:	11 24       	eor	r1, r1
    218a:	ef 90       	pop	r14
    218c:	ff 90       	pop	r15
    218e:	0f 91       	pop	r16
    2190:	1f 91       	pop	r17
    2192:	cf 91       	pop	r28
    2194:	df 91       	pop	r29
    2196:	99 27       	eor	r25, r25
    2198:	87 fd       	sbrc	r24, 7
    219a:	90 95       	com	r25
    219c:	08 95       	ret

0000219e <_exit>:
    219e:	f8 94       	cli

000021a0 <__stop_program>:
    21a0:	ff cf       	rjmp	.-2      	; 0x21a0 <__stop_program>
